
cjpeg:     file format elf32-or32


Disassembly of section .vectors:

00000000 <__reset-0x100>:
	...

00000100 <__reset>:
     100:	18 00 00 00 	l.movhi r0,0x0
     104:	18 20 00 00 	l.movhi r1,0x0
     108:	18 40 00 00 	l.movhi r2,0x0
     10c:	18 60 00 00 	l.movhi r3,0x0
     110:	18 80 00 00 	l.movhi r4,0x0
     114:	18 a0 00 00 	l.movhi r5,0x0
     118:	18 c0 00 00 	l.movhi r6,0x0
     11c:	18 e0 00 00 	l.movhi r7,0x0
     120:	19 00 00 00 	l.movhi r8,0x0
     124:	19 20 00 00 	l.movhi r9,0x0
     128:	19 40 00 00 	l.movhi r10,0x0
     12c:	19 60 00 00 	l.movhi r11,0x0
     130:	19 80 00 00 	l.movhi r12,0x0
     134:	19 a0 00 00 	l.movhi r13,0x0
     138:	19 c0 00 00 	l.movhi r14,0x0
     13c:	19 e0 00 00 	l.movhi r15,0x0
     140:	1a 00 00 00 	l.movhi r16,0x0
     144:	1a 20 00 00 	l.movhi r17,0x0
     148:	1a 40 00 00 	l.movhi r18,0x0
     14c:	1a 60 00 00 	l.movhi r19,0x0
     150:	1a 80 00 00 	l.movhi r20,0x0
     154:	1a a0 00 00 	l.movhi r21,0x0
     158:	1a c0 00 00 	l.movhi r22,0x0
     15c:	1a e0 00 00 	l.movhi r23,0x0
     160:	1b 00 00 00 	l.movhi r24,0x0
     164:	1b 20 00 00 	l.movhi r25,0x0
     168:	1b 40 00 00 	l.movhi r26,0x0
     16c:	1b 60 00 00 	l.movhi r27,0x0
     170:	1b 80 00 00 	l.movhi r28,0x0
     174:	1b a0 00 00 	l.movhi r29,0x0
     178:	1b c0 00 00 	l.movhi r30,0x0
     17c:	1b e0 00 00 	l.movhi r31,0x0
     180:	a8 20 00 01 	l.ori r1,r0,0x1
     184:	c0 00 08 11 	l.mtspr r0,r1,0x11
     188:	c1 40 00 00 	l.mtspr r0,r0,0x5000
     18c:	18 80 00 00 	l.movhi r4,0x0
     190:	a8 84 20 28 	l.ori r4,r4,0x2028
     194:	44 00 20 00 	l.jr r4
     198:	15 00 00 00 	l.nop 0x0
	...
     200:	9c 21 ff 00 	l.addi r1,r1,0xffffff00
     204:	d4 01 18 04 	l.sw 0x4(r1),r3
     208:	d4 01 20 08 	l.sw 0x8(r1),r4
     20c:	b4 60 00 10 	l.mfspr r3,r0,0x10
     210:	00 00 5f 8a 	l.j 18038 <or1k_exception_handler>
     214:	b4 80 00 20 	l.mfspr r4,r0,0x20
	...
     300:	9c 21 ff 00 	l.addi r1,r1,0xffffff00
     304:	d4 01 18 04 	l.sw 0x4(r1),r3
     308:	d4 01 20 08 	l.sw 0x8(r1),r4
     30c:	b4 60 00 10 	l.mfspr r3,r0,0x10
     310:	00 00 5f 4a 	l.j 18038 <or1k_exception_handler>
     314:	b4 80 00 20 	l.mfspr r4,r0,0x20
	...
     400:	9c 21 ff 00 	l.addi r1,r1,0xffffff00
     404:	d4 01 18 04 	l.sw 0x4(r1),r3
     408:	d4 01 20 08 	l.sw 0x8(r1),r4
     40c:	b4 60 00 10 	l.mfspr r3,r0,0x10
     410:	00 00 5f 0a 	l.j 18038 <or1k_exception_handler>
     414:	b4 80 00 20 	l.mfspr r4,r0,0x20
	...
     500:	9c 21 ff 00 	l.addi r1,r1,0xffffff00
     504:	d4 01 18 04 	l.sw 0x4(r1),r3
     508:	d4 01 20 08 	l.sw 0x8(r1),r4
     50c:	b4 60 00 10 	l.mfspr r3,r0,0x10
     510:	00 00 5e ca 	l.j 18038 <or1k_exception_handler>
     514:	b4 80 00 20 	l.mfspr r4,r0,0x20
	...
     600:	9c 21 ff 00 	l.addi r1,r1,0xffffff00
     604:	d4 01 18 04 	l.sw 0x4(r1),r3
     608:	d4 01 20 08 	l.sw 0x8(r1),r4
     60c:	b4 60 00 10 	l.mfspr r3,r0,0x10
     610:	00 00 5e 8a 	l.j 18038 <or1k_exception_handler>
     614:	b4 80 00 20 	l.mfspr r4,r0,0x20
	...
     700:	9c 21 ff 00 	l.addi r1,r1,0xffffff00
     704:	d4 01 18 04 	l.sw 0x4(r1),r3
     708:	d4 01 20 08 	l.sw 0x8(r1),r4
     70c:	b4 60 00 10 	l.mfspr r3,r0,0x10
     710:	00 00 5e 4a 	l.j 18038 <or1k_exception_handler>
     714:	b4 80 00 20 	l.mfspr r4,r0,0x20
	...
     800:	9c 21 ff 00 	l.addi r1,r1,0xffffff00
     804:	d4 01 18 04 	l.sw 0x4(r1),r3
     808:	d4 01 20 08 	l.sw 0x8(r1),r4
     80c:	b4 60 00 10 	l.mfspr r3,r0,0x10
     810:	00 00 5e 0a 	l.j 18038 <or1k_exception_handler>
     814:	b4 80 00 20 	l.mfspr r4,r0,0x20
	...
     900:	9c 21 ff 00 	l.addi r1,r1,0xffffff00
     904:	d4 01 18 04 	l.sw 0x4(r1),r3
     908:	d4 01 20 08 	l.sw 0x8(r1),r4
     90c:	b4 60 00 10 	l.mfspr r3,r0,0x10
     910:	00 00 5d ca 	l.j 18038 <or1k_exception_handler>
     914:	b4 80 00 20 	l.mfspr r4,r0,0x20
	...
     a00:	9c 21 ff 00 	l.addi r1,r1,0xffffff00
     a04:	d4 01 18 04 	l.sw 0x4(r1),r3
     a08:	d4 01 20 08 	l.sw 0x8(r1),r4
     a0c:	b4 60 00 10 	l.mfspr r3,r0,0x10
     a10:	00 00 5d 8a 	l.j 18038 <or1k_exception_handler>
     a14:	b4 80 00 20 	l.mfspr r4,r0,0x20
	...
     b00:	9c 21 ff 00 	l.addi r1,r1,0xffffff00
     b04:	d4 01 18 04 	l.sw 0x4(r1),r3
     b08:	d4 01 20 08 	l.sw 0x8(r1),r4
     b0c:	b4 60 00 10 	l.mfspr r3,r0,0x10
     b10:	00 00 5d 4a 	l.j 18038 <or1k_exception_handler>
     b14:	b4 80 00 20 	l.mfspr r4,r0,0x20
	...
     c00:	9c 21 ff 00 	l.addi r1,r1,0xffffff00
     c04:	d4 01 18 04 	l.sw 0x4(r1),r3
     c08:	d4 01 20 08 	l.sw 0x8(r1),r4
     c0c:	b4 60 00 10 	l.mfspr r3,r0,0x10
     c10:	00 00 5d 0a 	l.j 18038 <or1k_exception_handler>
     c14:	b4 80 00 20 	l.mfspr r4,r0,0x20
	...
     d00:	9c 21 ff 00 	l.addi r1,r1,0xffffff00
     d04:	d4 01 18 04 	l.sw 0x4(r1),r3
     d08:	d4 01 20 08 	l.sw 0x8(r1),r4
     d0c:	b4 60 00 10 	l.mfspr r3,r0,0x10
     d10:	00 00 5c ca 	l.j 18038 <or1k_exception_handler>
     d14:	b4 80 00 20 	l.mfspr r4,r0,0x20
	...
     e00:	9c 21 ff 00 	l.addi r1,r1,0xffffff00
     e04:	d4 01 18 04 	l.sw 0x4(r1),r3
     e08:	d4 01 20 08 	l.sw 0x8(r1),r4
     e0c:	b4 60 00 10 	l.mfspr r3,r0,0x10
     e10:	00 00 5c 8a 	l.j 18038 <or1k_exception_handler>
     e14:	b4 80 00 20 	l.mfspr r4,r0,0x20
	...
     f00:	9c 21 ff 00 	l.addi r1,r1,0xffffff00
     f04:	d4 01 18 04 	l.sw 0x4(r1),r3
     f08:	d4 01 20 08 	l.sw 0x8(r1),r4
     f0c:	b4 60 00 10 	l.mfspr r3,r0,0x10
     f10:	00 00 5c 4a 	l.j 18038 <or1k_exception_handler>
     f14:	b4 80 00 20 	l.mfspr r4,r0,0x20
	...
    1000:	9c 21 ff 00 	l.addi r1,r1,0xffffff00
    1004:	d4 01 18 04 	l.sw 0x4(r1),r3
    1008:	d4 01 20 08 	l.sw 0x8(r1),r4
    100c:	b4 60 00 10 	l.mfspr r3,r0,0x10
    1010:	00 00 5c 0a 	l.j 18038 <or1k_exception_handler>
    1014:	b4 80 00 20 	l.mfspr r4,r0,0x20
	...
    1100:	9c 21 ff 00 	l.addi r1,r1,0xffffff00
    1104:	d4 01 18 04 	l.sw 0x4(r1),r3
    1108:	d4 01 20 08 	l.sw 0x8(r1),r4
    110c:	b4 60 00 10 	l.mfspr r3,r0,0x10
    1110:	00 00 5b ca 	l.j 18038 <or1k_exception_handler>
    1114:	b4 80 00 20 	l.mfspr r4,r0,0x20
	...
    1200:	9c 21 ff 00 	l.addi r1,r1,0xffffff00
    1204:	d4 01 18 04 	l.sw 0x4(r1),r3
    1208:	d4 01 20 08 	l.sw 0x8(r1),r4
    120c:	b4 60 00 10 	l.mfspr r3,r0,0x10
    1210:	00 00 5b 8a 	l.j 18038 <or1k_exception_handler>
    1214:	b4 80 00 20 	l.mfspr r4,r0,0x20
	...
    1300:	9c 21 ff 00 	l.addi r1,r1,0xffffff00
    1304:	d4 01 18 04 	l.sw 0x4(r1),r3
    1308:	d4 01 20 08 	l.sw 0x8(r1),r4
    130c:	b4 60 00 10 	l.mfspr r3,r0,0x10
    1310:	00 00 5b 4a 	l.j 18038 <or1k_exception_handler>
    1314:	b4 80 00 20 	l.mfspr r4,r0,0x20
	...
    1400:	9c 21 ff 00 	l.addi r1,r1,0xffffff00
    1404:	d4 01 18 04 	l.sw 0x4(r1),r3
    1408:	d4 01 20 08 	l.sw 0x8(r1),r4
    140c:	b4 60 00 10 	l.mfspr r3,r0,0x10
    1410:	00 00 5b 0a 	l.j 18038 <or1k_exception_handler>
    1414:	b4 80 00 20 	l.mfspr r4,r0,0x20
	...
    1500:	9c 21 ff 00 	l.addi r1,r1,0xffffff00
    1504:	d4 01 18 04 	l.sw 0x4(r1),r3
    1508:	d4 01 20 08 	l.sw 0x8(r1),r4
    150c:	b4 60 00 10 	l.mfspr r3,r0,0x10
    1510:	00 00 5a ca 	l.j 18038 <or1k_exception_handler>
    1514:	b4 80 00 20 	l.mfspr r4,r0,0x20
	...
    1600:	9c 21 ff 00 	l.addi r1,r1,0xffffff00
    1604:	d4 01 18 04 	l.sw 0x4(r1),r3
    1608:	d4 01 20 08 	l.sw 0x8(r1),r4
    160c:	b4 60 00 10 	l.mfspr r3,r0,0x10
    1610:	00 00 5a 8a 	l.j 18038 <or1k_exception_handler>
    1614:	b4 80 00 20 	l.mfspr r4,r0,0x20
	...
    1700:	9c 21 ff 00 	l.addi r1,r1,0xffffff00
    1704:	d4 01 18 04 	l.sw 0x4(r1),r3
    1708:	d4 01 20 08 	l.sw 0x8(r1),r4
    170c:	b4 60 00 10 	l.mfspr r3,r0,0x10
    1710:	00 00 5a 4a 	l.j 18038 <or1k_exception_handler>
    1714:	b4 80 00 20 	l.mfspr r4,r0,0x20
	...
    1800:	9c 21 ff 00 	l.addi r1,r1,0xffffff00
    1804:	d4 01 18 04 	l.sw 0x4(r1),r3
    1808:	d4 01 20 08 	l.sw 0x8(r1),r4
    180c:	b4 60 00 10 	l.mfspr r3,r0,0x10
    1810:	00 00 5a 0a 	l.j 18038 <or1k_exception_handler>
    1814:	b4 80 00 20 	l.mfspr r4,r0,0x20
	...
    1900:	9c 21 ff 00 	l.addi r1,r1,0xffffff00
    1904:	d4 01 18 04 	l.sw 0x4(r1),r3
    1908:	d4 01 20 08 	l.sw 0x8(r1),r4
    190c:	b4 60 00 10 	l.mfspr r3,r0,0x10
    1910:	00 00 59 ca 	l.j 18038 <or1k_exception_handler>
    1914:	b4 80 00 20 	l.mfspr r4,r0,0x20
	...
    1a00:	9c 21 ff 00 	l.addi r1,r1,0xffffff00
    1a04:	d4 01 18 04 	l.sw 0x4(r1),r3
    1a08:	d4 01 20 08 	l.sw 0x8(r1),r4
    1a0c:	b4 60 00 10 	l.mfspr r3,r0,0x10
    1a10:	00 00 59 8a 	l.j 18038 <or1k_exception_handler>
    1a14:	b4 80 00 20 	l.mfspr r4,r0,0x20
	...
    1b00:	9c 21 ff 00 	l.addi r1,r1,0xffffff00
    1b04:	d4 01 18 04 	l.sw 0x4(r1),r3
    1b08:	d4 01 20 08 	l.sw 0x8(r1),r4
    1b0c:	b4 60 00 10 	l.mfspr r3,r0,0x10
    1b10:	00 00 59 4a 	l.j 18038 <or1k_exception_handler>
    1b14:	b4 80 00 20 	l.mfspr r4,r0,0x20
	...
    1c00:	9c 21 ff 00 	l.addi r1,r1,0xffffff00
    1c04:	d4 01 18 04 	l.sw 0x4(r1),r3
    1c08:	d4 01 20 08 	l.sw 0x8(r1),r4
    1c0c:	b4 60 00 10 	l.mfspr r3,r0,0x10
    1c10:	00 00 59 0a 	l.j 18038 <or1k_exception_handler>
    1c14:	b4 80 00 20 	l.mfspr r4,r0,0x20
	...
    1d00:	9c 21 ff 00 	l.addi r1,r1,0xffffff00
    1d04:	d4 01 18 04 	l.sw 0x4(r1),r3
    1d08:	d4 01 20 08 	l.sw 0x8(r1),r4
    1d0c:	b4 60 00 10 	l.mfspr r3,r0,0x10
    1d10:	00 00 58 ca 	l.j 18038 <or1k_exception_handler>
    1d14:	b4 80 00 20 	l.mfspr r4,r0,0x20
	...
    1e00:	9c 21 ff 00 	l.addi r1,r1,0xffffff00
    1e04:	d4 01 18 04 	l.sw 0x4(r1),r3
    1e08:	d4 01 20 08 	l.sw 0x8(r1),r4
    1e0c:	b4 60 00 10 	l.mfspr r3,r0,0x10
    1e10:	00 00 58 8a 	l.j 18038 <or1k_exception_handler>
    1e14:	b4 80 00 20 	l.mfspr r4,r0,0x20
	...
    1f00:	9c 21 ff 00 	l.addi r1,r1,0xffffff00
    1f04:	d4 01 18 04 	l.sw 0x4(r1),r3
    1f08:	d4 01 20 08 	l.sw 0x8(r1),r4
    1f0c:	b4 60 00 10 	l.mfspr r3,r0,0x10
    1f10:	00 00 58 4a 	l.j 18038 <or1k_exception_handler>
    1f14:	b4 80 00 20 	l.mfspr r4,r0,0x20
	...
    1ffc:	15 00 00 00 	l.nop 0x0

Disassembly of section .init:

00002000 <__init-0x4>:
    2000:	15 00 00 00 	l.nop 0x0

00002004 <__init>:
    2004:	9c 21 ff fc 	l.addi r1,r1,0xfffffffc
    2008:	d4 01 48 00 	l.sw 0x0(r1),r9
    200c:	04 00 00 6e 	l.jal 21c4 <frame_dummy>
    2010:	15 00 00 00 	l.nop 0x0
    2014:	04 00 9f 0b 	l.jal 29c40 <__do_global_ctors_aux>
    2018:	15 00 00 00 	l.nop 0x0
    201c:	85 21 00 00 	l.lwz r9,0x0(r1)
    2020:	44 00 48 00 	l.jr r9
    2024:	9c 21 00 04 	l.addi r1,r1,0x4

Disassembly of section .text:

00002028 <_start>:
    2028:	18 20 00 02 	l.movhi r1,0x2
    202c:	a8 21 9b 84 	l.ori r1,r1,0x9b84
    2030:	84 21 00 00 	l.lwz r1,0x0(r1)
    2034:	18 40 00 02 	l.movhi r2,0x2
    2038:	a8 42 9b 88 	l.ori r2,r2,0x9b88
    203c:	84 42 00 00 	l.lwz r2,0x0(r2)
    2040:	e0 21 10 00 	l.add r1,r1,r2
    2044:	e0 41 08 04 	l.or r2,r1,r1
    2048:	18 60 00 02 	l.movhi r3,0x2
    204c:	a8 63 f7 e8 	l.ori r3,r3,0xf7e8
    2050:	d4 03 08 00 	l.sw 0x0(r3),r1
    2054:	04 00 57 4b 	l.jal 17d80 <or1k_cache_init>
    2058:	15 00 00 00 	l.nop 0x0
    205c:	18 60 00 03 	l.movhi r3,0x3
    2060:	a8 63 02 1c 	l.ori r3,r3,0x21c
    2064:	18 80 00 03 	l.movhi r4,0x3
    2068:	a8 84 03 94 	l.ori r4,r4,0x394
    206c:	d4 03 00 00 	l.sw 0x0(r3),r0
    2070:	e4 83 20 00 	l.sfltu r3,r4
    2074:	13 ff ff fe 	l.bf 206c <_start+0x44>
    2078:	9c 63 00 04 	l.addi r3,r3,0x4
    207c:	04 00 9d 3d 	l.jal 29570 <__impure_init>
    2080:	15 00 00 00 	l.nop 0x0
    2084:	07 ff ff e0 	l.jal 2004 <__init>
    2088:	15 00 00 00 	l.nop 0x0
    208c:	18 60 00 02 	l.movhi r3,0x2
    2090:	04 00 49 d7 	l.jal 147ec <atexit>
    2094:	a8 63 9c a4 	l.ori r3,r3,0x9ca4
    2098:	18 80 00 02 	l.movhi r4,0x2
    209c:	a8 84 9b 90 	l.ori r4,r4,0x9b90
    20a0:	84 84 00 00 	l.lwz r4,0x0(r4)
    20a4:	e4 24 00 00 	l.sfne r4,r0
    20a8:	0c 00 00 04 	l.bnf 20b8 <_start+0x90>
    20ac:	e0 60 00 04 	l.or r3,r0,r0
    20b0:	04 00 9e 2e 	l.jal 29968 <__uart_init>
    20b4:	15 00 00 00 	l.nop 0x0
    20b8:	e0 60 00 04 	l.or r3,r0,r0
    20bc:	e0 80 00 04 	l.or r4,r0,r0
    20c0:	04 00 03 1a 	l.jal 2d28 <main>
    20c4:	e0 a0 00 04 	l.or r5,r0,r0
    20c8:	04 00 49 d2 	l.jal 14810 <exit>
    20cc:	9c 6b 00 00 	l.addi r3,r11,0x0
    20d0:	00 00 00 00 	l.j 20d0 <_start+0xa8>
    20d4:	15 00 00 00 	l.nop 0x0

000020d8 <__do_global_dtors_aux>:
    20d8:	d7 e1 87 f8 	l.sw 0xfffffff8(r1),r16
    20dc:	1a 00 00 03 	l.movhi r16,0x3
    20e0:	d7 e1 17 f0 	l.sw 0xfffffff0(r1),r2
    20e4:	aa 10 02 1c 	l.ori r16,r16,0x21c
    20e8:	d7 e1 4f fc 	l.sw 0xfffffffc(r1),r9
    20ec:	8c 50 00 00 	l.lbz r2,0x0(r16)
    20f0:	d7 e1 77 f4 	l.sw 0xfffffff4(r1),r14
    20f4:	bc 22 00 00 	l.sfnei r2,0x0
    20f8:	10 00 00 27 	l.bf 2194 <__do_global_dtors_aux+0xbc>
    20fc:	9c 21 ff f0 	l.addi r1,r1,0xfffffff0
    2100:	19 c0 00 02 	l.movhi r14,0x2
    2104:	18 80 00 02 	l.movhi r4,0x2
    2108:	a9 ce f7 e0 	l.ori r14,r14,0xf7e0
    210c:	a8 84 f7 dc 	l.ori r4,r4,0xf7dc
    2110:	18 40 00 03 	l.movhi r2,0x3
    2114:	e1 ce 20 02 	l.sub r14,r14,r4
    2118:	a8 42 02 20 	l.ori r2,r2,0x220
    211c:	b9 ce 00 82 	l.srai r14,r14,0x2
    2120:	84 62 00 00 	l.lwz r3,0x0(r2)
    2124:	9d ce ff ff 	l.addi r14,r14,0xffffffff
    2128:	e4 63 70 00 	l.sfgeu r3,r14
    212c:	10 00 00 10 	l.bf 216c <__do_global_dtors_aux+0x94>
    2130:	15 00 00 00 	l.nop 0x0
    2134:	9c 63 00 01 	l.addi r3,r3,0x1
    2138:	18 a0 00 02 	l.movhi r5,0x2
    213c:	b8 83 00 02 	l.slli r4,r3,0x2
    2140:	a8 a5 f7 dc 	l.ori r5,r5,0xf7dc
    2144:	d4 02 18 00 	l.sw 0x0(r2),r3
    2148:	e0 64 28 00 	l.add r3,r4,r5
    214c:	84 63 00 00 	l.lwz r3,0x0(r3)
    2150:	48 00 18 00 	l.jalr r3
    2154:	15 00 00 00 	l.nop 0x0
    2158:	84 62 00 00 	l.lwz r3,0x0(r2)
    215c:	e4 83 70 00 	l.sfltu r3,r14
    2160:	13 ff ff f6 	l.bf 2138 <__do_global_dtors_aux+0x60>
    2164:	9c 63 00 01 	l.addi r3,r3,0x1
    2168:	9c 63 ff ff 	l.addi r3,r3,0xffffffff
    216c:	18 40 00 00 	l.movhi r2,0x0
    2170:	a8 42 00 00 	l.ori r2,r2,0x0
    2174:	bc 02 00 00 	l.sfeqi r2,0x0
    2178:	10 00 00 06 	l.bf 2190 <__do_global_dtors_aux+0xb8>
    217c:	9c 40 00 01 	l.addi r2,r0,0x1
    2180:	18 60 00 02 	l.movhi r3,0x2
    2184:	07 ff f7 9f 	l.jal 0 <__reset-0x100>
    2188:	a8 63 d7 d0 	l.ori r3,r3,0xd7d0
    218c:	9c 40 00 01 	l.addi r2,r0,0x1
    2190:	d8 10 10 00 	l.sb 0x0(r16),r2
    2194:	9c 21 00 10 	l.addi r1,r1,0x10
    2198:	85 21 ff fc 	l.lwz r9,0xfffffffc(r1)
    219c:	84 41 ff f0 	l.lwz r2,0xfffffff0(r1)
    21a0:	85 c1 ff f4 	l.lwz r14,0xfffffff4(r1)
    21a4:	44 00 48 00 	l.jr r9
    21a8:	86 01 ff f8 	l.lwz r16,0xfffffff8(r1)

000021ac <call___do_global_dtors_aux>:
    21ac:	d7 e1 4f fc 	l.sw 0xfffffffc(r1),r9
    21b0:	9c 21 ff fc 	l.addi r1,r1,0xfffffffc
    21b4:	9c 21 00 04 	l.addi r1,r1,0x4
    21b8:	85 21 ff fc 	l.lwz r9,0xfffffffc(r1)
    21bc:	44 00 48 00 	l.jr r9
    21c0:	15 00 00 00 	l.nop 0x0

000021c4 <frame_dummy>:
    21c4:	18 60 00 00 	l.movhi r3,0x0
    21c8:	d7 e1 4f fc 	l.sw 0xfffffffc(r1),r9
    21cc:	a8 63 00 00 	l.ori r3,r3,0x0
    21d0:	bc 03 00 00 	l.sfeqi r3,0x0
    21d4:	10 00 00 07 	l.bf 21f0 <frame_dummy+0x2c>
    21d8:	9c 21 ff fc 	l.addi r1,r1,0xfffffffc
    21dc:	18 60 00 02 	l.movhi r3,0x2
    21e0:	18 80 00 03 	l.movhi r4,0x3
    21e4:	a8 63 d7 d0 	l.ori r3,r3,0xd7d0
    21e8:	07 ff f7 86 	l.jal 0 <__reset-0x100>
    21ec:	a8 84 02 24 	l.ori r4,r4,0x224
    21f0:	18 60 00 02 	l.movhi r3,0x2
    21f4:	a8 63 f7 e4 	l.ori r3,r3,0xf7e4
    21f8:	84 83 00 00 	l.lwz r4,0x0(r3)
    21fc:	bc 04 00 00 	l.sfeqi r4,0x0
    2200:	10 00 00 0a 	l.bf 2228 <frame_dummy+0x64>
    2204:	18 80 00 00 	l.movhi r4,0x0
    2208:	a8 84 00 00 	l.ori r4,r4,0x0
    220c:	bc 04 00 00 	l.sfeqi r4,0x0
    2210:	10 00 00 06 	l.bf 2228 <frame_dummy+0x64>
    2214:	15 00 00 00 	l.nop 0x0
    2218:	9c 21 00 04 	l.addi r1,r1,0x4
    221c:	85 21 ff fc 	l.lwz r9,0xfffffffc(r1)
    2220:	44 00 20 00 	l.jr r4
    2224:	15 00 00 00 	l.nop 0x0
    2228:	9c 21 00 04 	l.addi r1,r1,0x4
    222c:	85 21 ff fc 	l.lwz r9,0xfffffffc(r1)
    2230:	44 00 48 00 	l.jr r9
    2234:	15 00 00 00 	l.nop 0x0

00002238 <call_frame_dummy>:
    2238:	d7 e1 4f fc 	l.sw 0xfffffffc(r1),r9
    223c:	9c 21 ff fc 	l.addi r1,r1,0xfffffffc
    2240:	9c 21 00 04 	l.addi r1,r1,0x4
    2244:	85 21 ff fc 	l.lwz r9,0xfffffffc(r1)
    2248:	44 00 48 00 	l.jr r9
    224c:	15 00 00 00 	l.nop 0x0

00002250 <usage>:
    2250:	d7 e1 17 f4 	l.sw 0xfffffff4(r1),r2
    2254:	18 80 00 03 	l.movhi r4,0x3
    2258:	18 40 00 02 	l.movhi r2,0x2
    225c:	a8 84 02 3c 	l.ori r4,r4,0x23c
    2260:	a8 42 f7 f4 	l.ori r2,r2,0xf7f4
    2264:	d7 e1 4f fc 	l.sw 0xfffffffc(r1),r9
    2268:	84 62 00 00 	l.lwz r3,0x0(r2)
    226c:	d7 e1 77 f8 	l.sw 0xfffffff8(r1),r14
    2270:	84 84 00 00 	l.lwz r4,0x0(r4)
    2274:	9c 21 ff f0 	l.addi r1,r1,0xfffffff0
    2278:	84 63 00 0c 	l.lwz r3,0xc(r3)
    227c:	d4 01 20 00 	l.sw 0x0(r1),r4
    2280:	18 80 00 02 	l.movhi r4,0x2
    2284:	19 c0 00 02 	l.movhi r14,0x2
    2288:	a8 84 9c c0 	l.ori r4,r4,0x9cc0
    228c:	04 00 4c 08 	l.jal 152ac <fprintf>
    2290:	a9 ce 9e 3a 	l.ori r14,r14,0x9e3a
    2294:	84 82 00 00 	l.lwz r4,0x0(r2)
    2298:	18 60 00 02 	l.movhi r3,0x2
    229c:	84 84 00 0c 	l.lwz r4,0xc(r4)
    22a0:	04 00 4c 3c 	l.jal 15390 <fputs>
    22a4:	a8 63 9c d6 	l.ori r3,r3,0x9cd6
    22a8:	84 82 00 00 	l.lwz r4,0x0(r2)
    22ac:	18 60 00 02 	l.movhi r3,0x2
    22b0:	84 84 00 0c 	l.lwz r4,0xc(r4)
    22b4:	04 00 4c 37 	l.jal 15390 <fputs>
    22b8:	a8 63 9c e3 	l.ori r3,r3,0x9ce3
    22bc:	84 82 00 00 	l.lwz r4,0x0(r2)
    22c0:	18 60 00 02 	l.movhi r3,0x2
    22c4:	84 84 00 0c 	l.lwz r4,0xc(r4)
    22c8:	04 00 4c 32 	l.jal 15390 <fputs>
    22cc:	a8 63 9d 09 	l.ori r3,r3,0x9d09
    22d0:	84 82 00 00 	l.lwz r4,0x0(r2)
    22d4:	18 60 00 02 	l.movhi r3,0x2
    22d8:	84 84 00 0c 	l.lwz r4,0xc(r4)
    22dc:	04 00 4c 2d 	l.jal 15390 <fputs>
    22e0:	a8 63 9d 4e 	l.ori r3,r3,0x9d4e
    22e4:	84 82 00 00 	l.lwz r4,0x0(r2)
    22e8:	18 60 00 02 	l.movhi r3,0x2
    22ec:	84 84 00 0c 	l.lwz r4,0xc(r4)
    22f0:	04 00 4c 28 	l.jal 15390 <fputs>
    22f4:	a8 63 9d 7c 	l.ori r3,r3,0x9d7c
    22f8:	84 82 00 00 	l.lwz r4,0x0(r2)
    22fc:	18 60 00 02 	l.movhi r3,0x2
    2300:	84 84 00 0c 	l.lwz r4,0xc(r4)
    2304:	04 00 4c 23 	l.jal 15390 <fputs>
    2308:	a8 63 9d ca 	l.ori r3,r3,0x9dca
    230c:	84 82 00 00 	l.lwz r4,0x0(r2)
    2310:	18 60 00 02 	l.movhi r3,0x2
    2314:	84 84 00 0c 	l.lwz r4,0xc(r4)
    2318:	04 00 4c 1e 	l.jal 15390 <fputs>
    231c:	a8 63 9d f9 	l.ori r3,r3,0x9df9
    2320:	84 82 00 00 	l.lwz r4,0x0(r2)
    2324:	18 60 00 02 	l.movhi r3,0x2
    2328:	84 84 00 0c 	l.lwz r4,0xc(r4)
    232c:	04 00 4c 19 	l.jal 15390 <fputs>
    2330:	a8 63 9e 3b 	l.ori r3,r3,0x9e3b
    2334:	18 80 00 02 	l.movhi r4,0x2
    2338:	84 62 00 00 	l.lwz r3,0x0(r2)
    233c:	a8 84 9e 84 	l.ori r4,r4,0x9e84
    2340:	84 63 00 0c 	l.lwz r3,0xc(r3)
    2344:	d4 01 20 00 	l.sw 0x0(r1),r4
    2348:	18 80 00 02 	l.movhi r4,0x2
    234c:	04 00 4b d8 	l.jal 152ac <fprintf>
    2350:	a8 84 9e 59 	l.ori r4,r4,0x9e59
    2354:	84 62 00 00 	l.lwz r3,0x0(r2)
    2358:	18 80 00 02 	l.movhi r4,0x2
    235c:	84 63 00 0c 	l.lwz r3,0xc(r3)
    2360:	a8 84 9e 8f 	l.ori r4,r4,0x9e8f
    2364:	04 00 4b d2 	l.jal 152ac <fprintf>
    2368:	d4 01 70 00 	l.sw 0x0(r1),r14
    236c:	84 62 00 00 	l.lwz r3,0x0(r2)
    2370:	18 80 00 02 	l.movhi r4,0x2
    2374:	84 63 00 0c 	l.lwz r3,0xc(r3)
    2378:	a8 84 9e c8 	l.ori r4,r4,0x9ec8
    237c:	04 00 4b cc 	l.jal 152ac <fprintf>
    2380:	d4 01 70 00 	l.sw 0x0(r1),r14
    2384:	84 82 00 00 	l.lwz r4,0x0(r2)
    2388:	18 60 00 02 	l.movhi r3,0x2
    238c:	84 84 00 0c 	l.lwz r4,0xc(r4)
    2390:	04 00 4c 00 	l.jal 15390 <fputs>
    2394:	a8 63 9e fa 	l.ori r3,r3,0x9efa
    2398:	84 82 00 00 	l.lwz r4,0x0(r2)
    239c:	18 60 00 02 	l.movhi r3,0x2
    23a0:	84 84 00 0c 	l.lwz r4,0xc(r4)
    23a4:	04 00 4b fb 	l.jal 15390 <fputs>
    23a8:	a8 63 9f 3e 	l.ori r3,r3,0x9f3e
    23ac:	84 82 00 00 	l.lwz r4,0x0(r2)
    23b0:	18 60 00 02 	l.movhi r3,0x2
    23b4:	84 84 00 0c 	l.lwz r4,0xc(r4)
    23b8:	04 00 4b f6 	l.jal 15390 <fputs>
    23bc:	a8 63 9f 7d 	l.ori r3,r3,0x9f7d
    23c0:	84 82 00 00 	l.lwz r4,0x0(r2)
    23c4:	18 60 00 02 	l.movhi r3,0x2
    23c8:	84 84 00 0c 	l.lwz r4,0xc(r4)
    23cc:	04 00 4b f1 	l.jal 15390 <fputs>
    23d0:	a8 63 9f b1 	l.ori r3,r3,0x9fb1
    23d4:	84 82 00 00 	l.lwz r4,0x0(r2)
    23d8:	18 60 00 02 	l.movhi r3,0x2
    23dc:	84 84 00 0c 	l.lwz r4,0xc(r4)
    23e0:	04 00 4b ec 	l.jal 15390 <fputs>
    23e4:	a8 63 9f e0 	l.ori r3,r3,0x9fe0
    23e8:	84 82 00 00 	l.lwz r4,0x0(r2)
    23ec:	18 60 00 02 	l.movhi r3,0x2
    23f0:	84 84 00 0c 	l.lwz r4,0xc(r4)
    23f4:	04 00 4b e7 	l.jal 15390 <fputs>
    23f8:	a8 63 a0 0c 	l.ori r3,r3,0xa00c
    23fc:	84 82 00 00 	l.lwz r4,0x0(r2)
    2400:	18 60 00 02 	l.movhi r3,0x2
    2404:	84 84 00 0c 	l.lwz r4,0xc(r4)
    2408:	04 00 4b e2 	l.jal 15390 <fputs>
    240c:	a8 63 a0 23 	l.ori r3,r3,0xa023
    2410:	84 82 00 00 	l.lwz r4,0x0(r2)
    2414:	18 60 00 02 	l.movhi r3,0x2
    2418:	84 84 00 0c 	l.lwz r4,0xc(r4)
    241c:	04 00 4b dd 	l.jal 15390 <fputs>
    2420:	a8 63 a0 4b 	l.ori r3,r3,0xa04b
    2424:	84 82 00 00 	l.lwz r4,0x0(r2)
    2428:	18 60 00 02 	l.movhi r3,0x2
    242c:	84 84 00 0c 	l.lwz r4,0xc(r4)
    2430:	04 00 4b d8 	l.jal 15390 <fputs>
    2434:	a8 63 a0 83 	l.ori r3,r3,0xa083
    2438:	84 82 00 00 	l.lwz r4,0x0(r2)
    243c:	18 60 00 02 	l.movhi r3,0x2
    2440:	84 84 00 0c 	l.lwz r4,0xc(r4)
    2444:	04 00 4b d3 	l.jal 15390 <fputs>
    2448:	a8 63 a0 bb 	l.ori r3,r3,0xa0bb
    244c:	18 60 00 02 	l.movhi r3,0x2
    2450:	84 42 00 00 	l.lwz r2,0x0(r2)
    2454:	a8 63 a0 f0 	l.ori r3,r3,0xa0f0
    2458:	04 00 4b ce 	l.jal 15390 <fputs>
    245c:	84 82 00 0c 	l.lwz r4,0xc(r2)
    2460:	04 00 48 ec 	l.jal 14810 <exit>
    2464:	9c 60 00 01 	l.addi r3,r0,0x1

00002468 <parse_switches.clone.0>:
    2468:	d7 e1 17 d4 	l.sw 0xffffffd4(r1),r2
    246c:	d7 e1 77 d8 	l.sw 0xffffffd8(r1),r14
    2470:	d7 e1 97 e0 	l.sw 0xffffffe0(r1),r18
    2474:	d7 e1 a7 e4 	l.sw 0xffffffe4(r1),r20
    2478:	d7 e1 b7 e8 	l.sw 0xffffffe8(r1),r22
    247c:	d7 e1 c7 ec 	l.sw 0xffffffec(r1),r24
    2480:	d7 e1 d7 f0 	l.sw 0xfffffff0(r1),r26
    2484:	d7 e1 e7 f4 	l.sw 0xfffffff4(r1),r28
    2488:	d7 e1 f7 f8 	l.sw 0xfffffff8(r1),r30
    248c:	d7 e1 4f fc 	l.sw 0xfffffffc(r1),r9
    2490:	d7 e1 87 dc 	l.sw 0xffffffdc(r1),r16
    2494:	a9 c3 00 00 	l.ori r14,r3,0x0
    2498:	9c 21 ff b0 	l.addi r1,r1,0xffffffb0
    249c:	9c 40 00 4b 	l.addi r2,r0,0x4b
    24a0:	aa 84 00 00 	l.ori r20,r4,0x0
    24a4:	18 60 00 03 	l.movhi r3,0x3
    24a8:	18 80 00 03 	l.movhi r4,0x3
    24ac:	d4 01 10 20 	l.sw 0x20(r1),r2
    24b0:	a8 84 02 44 	l.ori r4,r4,0x244
    24b4:	9c 40 00 00 	l.addi r2,r0,0x0
    24b8:	a8 63 02 40 	l.ori r3,r3,0x240
    24bc:	aa 45 00 00 	l.ori r18,r5,0x0
    24c0:	d4 04 10 00 	l.sw 0x0(r4),r2
    24c4:	9c a0 00 00 	l.addi r5,r0,0x0
    24c8:	d4 03 10 00 	l.sw 0x0(r3),r2
    24cc:	84 4e 00 00 	l.lwz r2,0x0(r14)
    24d0:	d4 01 30 14 	l.sw 0x14(r1),r6
    24d4:	d4 02 28 68 	l.sw 0x68(r2),r5
    24d8:	9c 40 00 64 	l.addi r2,r0,0x64
    24dc:	aa c5 00 00 	l.ori r22,r5,0x0
    24e0:	d4 01 10 0c 	l.sw 0xc(r1),r2
    24e4:	9c 40 00 01 	l.addi r2,r0,0x1
    24e8:	ab 45 00 00 	l.ori r26,r5,0x0
    24ec:	ab 85 00 00 	l.ori r28,r5,0x0
    24f0:	d4 01 28 08 	l.sw 0x8(r1),r5
    24f4:	d4 01 28 10 	l.sw 0x10(r1),r5
    24f8:	ab c5 00 00 	l.ori r30,r5,0x0
    24fc:	00 00 01 c2 	l.j 2c04 <parse_switches.clone.0+0x79c>
    2500:	ab 02 00 00 	l.ori r24,r2,0x0
    2504:	e0 72 18 00 	l.add r3,r18,r3
    2508:	86 03 00 00 	l.lwz r16,0x0(r3)
    250c:	90 70 00 00 	l.lbs r3,0x0(r16)
    2510:	bc 03 00 2d 	l.sfeqi r3,0x2d
    2514:	10 00 00 09 	l.bf 2538 <parse_switches.clone.0+0xd0>
    2518:	bd 42 00 00 	l.sfgtsi r2,0x0
    251c:	10 00 01 be 	l.bf 2c14 <parse_switches.clone.0+0x7ac>
    2520:	84 81 00 14 	l.lwz r4,0x14(r1)
    2524:	18 60 00 03 	l.movhi r3,0x3
    2528:	9c 80 00 00 	l.addi r4,r0,0x0
    252c:	a8 63 02 40 	l.ori r3,r3,0x240
    2530:	00 00 01 b4 	l.j 2c00 <parse_switches.clone.0+0x798>
    2534:	d4 03 20 00 	l.sw 0x0(r3),r4
    2538:	9e 10 00 01 	l.addi r16,r16,0x1
    253c:	18 80 00 02 	l.movhi r4,0x2
    2540:	a8 70 00 00 	l.ori r3,r16,0x0
    2544:	a8 84 a1 29 	l.ori r4,r4,0xa129
    2548:	04 00 11 af 	l.jal 6c04 <keymatch>
    254c:	9c a0 00 01 	l.addi r5,r0,0x1
    2550:	bc 0b 00 00 	l.sfeqi r11,0x0
    2554:	10 00 00 0f 	l.bf 2590 <parse_switches.clone.0+0x128>
    2558:	18 80 00 02 	l.movhi r4,0x2
    255c:	18 40 00 02 	l.movhi r2,0x2
    2560:	18 80 00 02 	l.movhi r4,0x2
    2564:	a8 42 f7 f4 	l.ori r2,r2,0xf7f4
    2568:	a8 84 a1 34 	l.ori r4,r4,0xa134
    256c:	84 42 00 00 	l.lwz r2,0x0(r2)
    2570:	84 62 00 0c 	l.lwz r3,0xc(r2)
    2574:	18 40 00 03 	l.movhi r2,0x3
    2578:	a8 42 02 3c 	l.ori r2,r2,0x23c
    257c:	84 42 00 00 	l.lwz r2,0x0(r2)
    2580:	04 00 4b 4b 	l.jal 152ac <fprintf>
    2584:	d4 01 10 00 	l.sw 0x0(r1),r2
    2588:	04 00 48 a2 	l.jal 14810 <exit>
    258c:	9c 60 00 01 	l.addi r3,r0,0x1
    2590:	a8 70 00 00 	l.ori r3,r16,0x0
    2594:	a8 84 a1 60 	l.ori r4,r4,0xa160
    2598:	04 00 11 9b 	l.jal 6c04 <keymatch>
    259c:	9c a0 00 01 	l.addi r5,r0,0x1
    25a0:	bc 2b 00 00 	l.sfnei r11,0x0
    25a4:	10 00 01 94 	l.bf 2bf4 <parse_switches.clone.0+0x78c>
    25a8:	18 80 00 02 	l.movhi r4,0x2
    25ac:	a8 70 00 00 	l.ori r3,r16,0x0
    25b0:	a8 84 a1 69 	l.ori r4,r4,0xa169
    25b4:	04 00 11 94 	l.jal 6c04 <keymatch>
    25b8:	9c a0 00 02 	l.addi r5,r0,0x2
    25bc:	bc 0b 00 00 	l.sfeqi r11,0x0
    25c0:	10 00 00 26 	l.bf 2658 <parse_switches.clone.0+0x1f0>
    25c4:	18 80 00 02 	l.movhi r4,0x2
    25c8:	9c 42 00 01 	l.addi r2,r2,0x1
    25cc:	e5 82 a0 00 	l.sflts r2,r20
    25d0:	10 00 00 04 	l.bf 25e0 <parse_switches.clone.0+0x178>
    25d4:	ba 02 00 02 	l.slli r16,r2,0x2
    25d8:	07 ff ff 1e 	l.jal 2250 <usage>
    25dc:	15 00 00 00 	l.nop 0x0
    25e0:	18 80 00 02 	l.movhi r4,0x2
    25e4:	9c a0 00 01 	l.addi r5,r0,0x1
    25e8:	e2 12 80 00 	l.add r16,r18,r16
    25ec:	a8 84 a1 6d 	l.ori r4,r4,0xa16d
    25f0:	04 00 11 85 	l.jal 6c04 <keymatch>
    25f4:	84 70 00 00 	l.lwz r3,0x0(r16)
    25f8:	bc 0b 00 00 	l.sfeqi r11,0x0
    25fc:	10 00 00 04 	l.bf 260c <parse_switches.clone.0+0x1a4>
    2600:	9c a0 00 00 	l.addi r5,r0,0x0
    2604:	00 00 01 7f 	l.j 2c00 <parse_switches.clone.0+0x798>
    2608:	d4 0e 28 bc 	l.sw 0xbc(r14),r5
    260c:	18 80 00 02 	l.movhi r4,0x2
    2610:	84 70 00 00 	l.lwz r3,0x0(r16)
    2614:	a8 84 a1 71 	l.ori r4,r4,0xa171
    2618:	04 00 11 7b 	l.jal 6c04 <keymatch>
    261c:	9c a0 00 02 	l.addi r5,r0,0x2
    2620:	bc 0b 00 00 	l.sfeqi r11,0x0
    2624:	10 00 00 04 	l.bf 2634 <parse_switches.clone.0+0x1cc>
    2628:	18 80 00 02 	l.movhi r4,0x2
    262c:	00 00 01 75 	l.j 2c00 <parse_switches.clone.0+0x798>
    2630:	d4 0e c0 bc 	l.sw 0xbc(r14),r24
    2634:	84 70 00 00 	l.lwz r3,0x0(r16)
    2638:	a8 84 a1 76 	l.ori r4,r4,0xa176
    263c:	04 00 11 72 	l.jal 6c04 <keymatch>
    2640:	9c a0 00 02 	l.addi r5,r0,0x2
    2644:	bc 0b 00 00 	l.sfeqi r11,0x0
    2648:	10 00 01 67 	l.bf 2be4 <parse_switches.clone.0+0x77c>
    264c:	9c 60 00 02 	l.addi r3,r0,0x2
    2650:	00 00 01 6c 	l.j 2c00 <parse_switches.clone.0+0x798>
    2654:	d4 0e 18 bc 	l.sw 0xbc(r14),r3
    2658:	a8 70 00 00 	l.ori r3,r16,0x0
    265c:	a8 84 a1 7c 	l.ori r4,r4,0xa17c
    2660:	04 00 11 69 	l.jal 6c04 <keymatch>
    2664:	9c a0 00 01 	l.addi r5,r0,0x1
    2668:	bc 2b 00 00 	l.sfnei r11,0x0
    266c:	10 00 00 0a 	l.bf 2694 <parse_switches.clone.0+0x22c>
    2670:	18 80 00 03 	l.movhi r4,0x3
    2674:	18 80 00 02 	l.movhi r4,0x2
    2678:	a8 70 00 00 	l.ori r3,r16,0x0
    267c:	a8 84 a1 82 	l.ori r4,r4,0xa182
    2680:	04 00 11 61 	l.jal 6c04 <keymatch>
    2684:	9c a0 00 01 	l.addi r5,r0,0x1
    2688:	bc 0b 00 00 	l.sfeqi r11,0x0
    268c:	10 00 00 1b 	l.bf 26f8 <parse_switches.clone.0+0x290>
    2690:	18 80 00 03 	l.movhi r4,0x3
    2694:	a8 84 02 48 	l.ori r4,r4,0x248
    2698:	84 64 00 00 	l.lwz r3,0x0(r4)
    269c:	bc 23 00 00 	l.sfnei r3,0x0
    26a0:	10 00 00 11 	l.bf 26e4 <parse_switches.clone.0+0x27c>
    26a4:	18 a0 00 02 	l.movhi r5,0x2
    26a8:	18 80 00 02 	l.movhi r4,0x2
    26ac:	a8 a5 f7 f4 	l.ori r5,r5,0xf7f4
    26b0:	a8 84 a1 b9 	l.ori r4,r4,0xa1b9
    26b4:	84 65 00 00 	l.lwz r3,0x0(r5)
    26b8:	18 a0 00 02 	l.movhi r5,0x2
    26bc:	84 63 00 0c 	l.lwz r3,0xc(r3)
    26c0:	d4 01 20 00 	l.sw 0x0(r1),r4
    26c4:	18 80 00 02 	l.movhi r4,0x2
    26c8:	a8 a5 a1 c6 	l.ori r5,r5,0xa1c6
    26cc:	a8 84 a1 8a 	l.ori r4,r4,0xa18a
    26d0:	04 00 4a f7 	l.jal 152ac <fprintf>
    26d4:	d4 01 28 04 	l.sw 0x4(r1),r5
    26d8:	18 60 00 03 	l.movhi r3,0x3
    26dc:	a8 63 02 48 	l.ori r3,r3,0x248
    26e0:	d4 03 c0 00 	l.sw 0x0(r3),r24
    26e4:	84 6e 00 00 	l.lwz r3,0x0(r14)
    26e8:	84 83 00 68 	l.lwz r4,0x68(r3)
    26ec:	9c 84 00 01 	l.addi r4,r4,0x1
    26f0:	00 00 01 44 	l.j 2c00 <parse_switches.clone.0+0x798>
    26f4:	d4 03 20 68 	l.sw 0x68(r3),r4
    26f8:	18 80 00 02 	l.movhi r4,0x2
    26fc:	a8 70 00 00 	l.ori r3,r16,0x0
    2700:	a8 84 a1 e9 	l.ori r4,r4,0xa1e9
    2704:	04 00 11 40 	l.jal 6c04 <keymatch>
    2708:	9c a0 00 02 	l.addi r5,r0,0x2
    270c:	bc 2b 00 00 	l.sfnei r11,0x0
    2710:	10 00 00 0a 	l.bf 2738 <parse_switches.clone.0+0x2d0>
    2714:	a8 6e 00 00 	l.ori r3,r14,0x0
    2718:	18 80 00 02 	l.movhi r4,0x2
    271c:	a8 70 00 00 	l.ori r3,r16,0x0
    2720:	a8 84 a1 f3 	l.ori r4,r4,0xa1f3
    2724:	04 00 11 38 	l.jal 6c04 <keymatch>
    2728:	9c a0 00 02 	l.addi r5,r0,0x2
    272c:	bc 0b 00 00 	l.sfeqi r11,0x0
    2730:	10 00 00 06 	l.bf 2748 <parse_switches.clone.0+0x2e0>
    2734:	a8 6e 00 00 	l.ori r3,r14,0x0
    2738:	04 00 14 29 	l.jal 77dc <jpeg_set_colorspace>
    273c:	9c 80 00 01 	l.addi r4,r0,0x1
    2740:	00 00 01 31 	l.j 2c04 <parse_switches.clone.0+0x79c>
    2744:	9c 42 00 01 	l.addi r2,r2,0x1
    2748:	18 80 00 02 	l.movhi r4,0x2
    274c:	a8 70 00 00 	l.ori r3,r16,0x0
    2750:	a8 84 a1 fd 	l.ori r4,r4,0xa1fd
    2754:	04 00 11 2c 	l.jal 6c04 <keymatch>
    2758:	9c a0 00 03 	l.addi r5,r0,0x3
    275c:	bc 0b 00 00 	l.sfeqi r11,0x0
    2760:	10 00 00 2d 	l.bf 2814 <parse_switches.clone.0+0x3ac>
    2764:	9c 80 00 78 	l.addi r4,r0,0x78
    2768:	9c 42 00 01 	l.addi r2,r2,0x1
    276c:	e5 82 a0 00 	l.sflts r2,r20
    2770:	10 00 00 04 	l.bf 2780 <parse_switches.clone.0+0x318>
    2774:	d8 01 20 18 	l.sb 0x18(r1),r4
    2778:	07 ff fe b6 	l.jal 2250 <usage>
    277c:	15 00 00 00 	l.nop 0x0
    2780:	b8 62 00 02 	l.slli r3,r2,0x2
    2784:	9c a1 00 1c 	l.addi r5,r1,0x1c
    2788:	9c 81 00 18 	l.addi r4,r1,0x18
    278c:	d4 01 28 00 	l.sw 0x0(r1),r5
    2790:	d4 01 20 04 	l.sw 0x4(r1),r4
    2794:	e0 72 18 00 	l.add r3,r18,r3
    2798:	18 80 00 02 	l.movhi r4,0x2
    279c:	84 63 00 00 	l.lwz r3,0x0(r3)
    27a0:	04 00 59 d7 	l.jal 18efc <sscanf>
    27a4:	a8 84 a2 07 	l.ori r4,r4,0xa207
    27a8:	bd 4b 00 00 	l.sfgtsi r11,0x0
    27ac:	10 00 00 05 	l.bf 27c0 <parse_switches.clone.0+0x358>
    27b0:	90 61 00 18 	l.lbs r3,0x18(r1)
    27b4:	07 ff fe a7 	l.jal 2250 <usage>
    27b8:	15 00 00 00 	l.nop 0x0
    27bc:	90 61 00 18 	l.lbs r3,0x18(r1)
    27c0:	ac 83 00 4d 	l.xori r4,r3,0x4d
    27c4:	a4 84 00 ff 	l.andi r4,r4,0xff
    27c8:	9c 84 ff ff 	l.addi r4,r4,0xffffffff
    27cc:	bd 84 00 00 	l.sfltsi r4,0x0
    27d0:	10 00 00 07 	l.bf 27ec <parse_switches.clone.0+0x384>
    27d4:	ac 63 00 6d 	l.xori r3,r3,0x6d
    27d8:	a4 63 00 ff 	l.andi r3,r3,0xff
    27dc:	9c 63 ff ff 	l.addi r3,r3,0xffffffff
    27e0:	bd 63 00 00 	l.sfgesi r3,0x0
    27e4:	10 00 00 07 	l.bf 2800 <parse_switches.clone.0+0x398>
    27e8:	84 61 00 1c 	l.lwz r3,0x1c(r1)
    27ec:	84 61 00 1c 	l.lwz r3,0x1c(r1)
    27f0:	9c a0 03 e8 	l.addi r5,r0,0x3e8
    27f4:	e0 63 2b 06 	l.mul r3,r3,r5
    27f8:	d4 01 18 1c 	l.sw 0x1c(r1),r3
    27fc:	84 61 00 1c 	l.lwz r3,0x1c(r1)
    2800:	9c a0 03 e8 	l.addi r5,r0,0x3e8
    2804:	84 8e 00 04 	l.lwz r4,0x4(r14)
    2808:	e0 63 2b 06 	l.mul r3,r3,r5
    280c:	00 00 00 fd 	l.j 2c00 <parse_switches.clone.0+0x798>
    2810:	d4 04 18 2c 	l.sw 0x2c(r4),r3
    2814:	18 80 00 02 	l.movhi r4,0x2
    2818:	a8 70 00 00 	l.ori r3,r16,0x0
    281c:	a8 84 a2 0d 	l.ori r4,r4,0xa20d
    2820:	04 00 10 f9 	l.jal 6c04 <keymatch>
    2824:	9c a0 00 01 	l.addi r5,r0,0x1
    2828:	bc 2b 00 00 	l.sfnei r11,0x0
    282c:	10 00 00 09 	l.bf 2850 <parse_switches.clone.0+0x3e8>
    2830:	18 80 00 02 	l.movhi r4,0x2
    2834:	a8 70 00 00 	l.ori r3,r16,0x0
    2838:	a8 84 a2 16 	l.ori r4,r4,0xa216
    283c:	04 00 10 f2 	l.jal 6c04 <keymatch>
    2840:	9c a0 00 01 	l.addi r5,r0,0x1
    2844:	bc 0b 00 00 	l.sfeqi r11,0x0
    2848:	10 00 00 04 	l.bf 2858 <parse_switches.clone.0+0x3f0>
    284c:	18 80 00 02 	l.movhi r4,0x2
    2850:	00 00 00 ec 	l.j 2c00 <parse_switches.clone.0+0x798>
    2854:	d4 0e c0 b0 	l.sw 0xb0(r14),r24
    2858:	a8 70 00 00 	l.ori r3,r16,0x0
    285c:	a8 84 a2 1f 	l.ori r4,r4,0xa21f
    2860:	04 00 10 e9 	l.jal 6c04 <keymatch>
    2864:	9c a0 00 04 	l.addi r5,r0,0x4
    2868:	bc 0b 00 00 	l.sfeqi r11,0x0
    286c:	10 00 00 0f 	l.bf 28a8 <parse_switches.clone.0+0x440>
    2870:	18 80 00 02 	l.movhi r4,0x2
    2874:	9c 42 00 01 	l.addi r2,r2,0x1
    2878:	e5 82 a0 00 	l.sflts r2,r20
    287c:	10 00 00 05 	l.bf 2890 <parse_switches.clone.0+0x428>
    2880:	b8 62 00 02 	l.slli r3,r2,0x2
    2884:	07 ff fe 73 	l.jal 2250 <usage>
    2888:	15 00 00 00 	l.nop 0x0
    288c:	b8 62 00 02 	l.slli r3,r2,0x2
    2890:	18 80 00 03 	l.movhi r4,0x3
    2894:	e0 72 18 00 	l.add r3,r18,r3
    2898:	a8 84 02 40 	l.ori r4,r4,0x240
    289c:	84 63 00 00 	l.lwz r3,0x0(r3)
    28a0:	00 00 00 d8 	l.j 2c00 <parse_switches.clone.0+0x798>
    28a4:	d4 04 18 00 	l.sw 0x0(r4),r3
    28a8:	a8 70 00 00 	l.ori r3,r16,0x0
    28ac:	a8 84 a2 27 	l.ori r4,r4,0xa227
    28b0:	04 00 10 d5 	l.jal 6c04 <keymatch>
    28b4:	9c a0 00 01 	l.addi r5,r0,0x1
    28b8:	bc 2b 00 00 	l.sfnei r11,0x0
    28bc:	10 00 00 d0 	l.bf 2bfc <parse_switches.clone.0+0x794>
    28c0:	9c 60 00 01 	l.addi r3,r0,0x1
    28c4:	18 80 00 02 	l.movhi r4,0x2
    28c8:	a8 70 00 00 	l.ori r3,r16,0x0
    28cc:	a8 84 a2 33 	l.ori r4,r4,0xa233
    28d0:	04 00 10 cd 	l.jal 6c04 <keymatch>
    28d4:	9c a0 00 01 	l.addi r5,r0,0x1
    28d8:	bc 0b 00 00 	l.sfeqi r11,0x0
    28dc:	10 00 00 19 	l.bf 2940 <parse_switches.clone.0+0x4d8>
    28e0:	18 80 00 02 	l.movhi r4,0x2
    28e4:	9c 42 00 01 	l.addi r2,r2,0x1
    28e8:	e5 82 a0 00 	l.sflts r2,r20
    28ec:	10 00 00 04 	l.bf 28fc <parse_switches.clone.0+0x494>
    28f0:	15 00 00 00 	l.nop 0x0
    28f4:	07 ff fe 57 	l.jal 2250 <usage>
    28f8:	15 00 00 00 	l.nop 0x0
    28fc:	b8 62 00 02 	l.slli r3,r2,0x2
    2900:	9c a1 00 20 	l.addi r5,r1,0x20
    2904:	18 80 00 02 	l.movhi r4,0x2
    2908:	d4 01 28 00 	l.sw 0x0(r1),r5
    290c:	e0 72 18 00 	l.add r3,r18,r3
    2910:	a8 84 bc 0f 	l.ori r4,r4,0xbc0f
    2914:	04 00 59 7a 	l.jal 18efc <sscanf>
    2918:	84 63 00 00 	l.lwz r3,0x0(r3)
    291c:	bc 0b 00 01 	l.sfeqi r11,0x1
    2920:	10 00 00 04 	l.bf 2930 <parse_switches.clone.0+0x4c8>
    2924:	15 00 00 00 	l.nop 0x0
    2928:	07 ff fe 4a 	l.jal 2250 <usage>
    292c:	15 00 00 00 	l.nop 0x0
    2930:	04 00 13 82 	l.jal 7738 <jpeg_quality_scaling>
    2934:	84 61 00 20 	l.lwz r3,0x20(r1)
    2938:	00 00 00 b2 	l.j 2c00 <parse_switches.clone.0+0x798>
    293c:	d4 01 58 0c 	l.sw 0xc(r1),r11
    2940:	a8 70 00 00 	l.ori r3,r16,0x0
    2944:	a8 84 a2 3b 	l.ori r4,r4,0xa23b
    2948:	04 00 10 af 	l.jal 6c04 <keymatch>
    294c:	9c a0 00 02 	l.addi r5,r0,0x2
    2950:	bc 0b 00 00 	l.sfeqi r11,0x0
    2954:	10 00 00 0c 	l.bf 2984 <parse_switches.clone.0+0x51c>
    2958:	18 80 00 02 	l.movhi r4,0x2
    295c:	9c 42 00 01 	l.addi r2,r2,0x1
    2960:	e5 82 a0 00 	l.sflts r2,r20
    2964:	10 00 00 05 	l.bf 2978 <parse_switches.clone.0+0x510>
    2968:	b8 62 00 02 	l.slli r3,r2,0x2
    296c:	07 ff fe 39 	l.jal 2250 <usage>
    2970:	15 00 00 00 	l.nop 0x0
    2974:	b8 62 00 02 	l.slli r3,r2,0x2
    2978:	e0 72 18 00 	l.add r3,r18,r3
    297c:	00 00 00 a1 	l.j 2c00 <parse_switches.clone.0+0x798>
    2980:	87 83 00 00 	l.lwz r28,0x0(r3)
    2984:	a8 70 00 00 	l.ori r3,r16,0x0
    2988:	a8 84 a2 42 	l.ori r4,r4,0xa242
    298c:	04 00 10 9e 	l.jal 6c04 <keymatch>
    2990:	9c a0 00 02 	l.addi r5,r0,0x2
    2994:	bc 0b 00 00 	l.sfeqi r11,0x0
    2998:	10 00 00 0d 	l.bf 29cc <parse_switches.clone.0+0x564>
    299c:	18 80 00 02 	l.movhi r4,0x2
    29a0:	9c 42 00 01 	l.addi r2,r2,0x1
    29a4:	e5 82 a0 00 	l.sflts r2,r20
    29a8:	10 00 00 05 	l.bf 29bc <parse_switches.clone.0+0x554>
    29ac:	b8 62 00 02 	l.slli r3,r2,0x2
    29b0:	07 ff fe 28 	l.jal 2250 <usage>
    29b4:	15 00 00 00 	l.nop 0x0
    29b8:	b8 62 00 02 	l.slli r3,r2,0x2
    29bc:	e0 72 18 00 	l.add r3,r18,r3
    29c0:	84 63 00 00 	l.lwz r3,0x0(r3)
    29c4:	00 00 00 8f 	l.j 2c00 <parse_switches.clone.0+0x798>
    29c8:	d4 01 18 08 	l.sw 0x8(r1),r3
    29cc:	a8 70 00 00 	l.ori r3,r16,0x0
    29d0:	a8 84 a2 4a 	l.ori r4,r4,0xa24a
    29d4:	04 00 10 8c 	l.jal 6c04 <keymatch>
    29d8:	9c a0 00 01 	l.addi r5,r0,0x1
    29dc:	bc 0b 00 00 	l.sfeqi r11,0x0
    29e0:	10 00 00 31 	l.bf 2aa4 <parse_switches.clone.0+0x63c>
    29e4:	9c 60 00 78 	l.addi r3,r0,0x78
    29e8:	9c 42 00 01 	l.addi r2,r2,0x1
    29ec:	e5 82 a0 00 	l.sflts r2,r20
    29f0:	10 00 00 04 	l.bf 2a00 <parse_switches.clone.0+0x598>
    29f4:	d8 01 18 18 	l.sb 0x18(r1),r3
    29f8:	07 ff fe 16 	l.jal 2250 <usage>
    29fc:	15 00 00 00 	l.nop 0x0
    2a00:	b8 62 00 02 	l.slli r3,r2,0x2
    2a04:	9c 81 00 1c 	l.addi r4,r1,0x1c
    2a08:	9c a1 00 18 	l.addi r5,r1,0x18
    2a0c:	d4 01 20 00 	l.sw 0x0(r1),r4
    2a10:	d4 01 28 04 	l.sw 0x4(r1),r5
    2a14:	e0 72 18 00 	l.add r3,r18,r3
    2a18:	18 80 00 02 	l.movhi r4,0x2
    2a1c:	84 63 00 00 	l.lwz r3,0x0(r3)
    2a20:	04 00 59 37 	l.jal 18efc <sscanf>
    2a24:	a8 84 a2 07 	l.ori r4,r4,0xa207
    2a28:	bd 4b 00 00 	l.sfgtsi r11,0x0
    2a2c:	10 00 00 05 	l.bf 2a40 <parse_switches.clone.0+0x5d8>
    2a30:	a8 80 ff ff 	l.ori r4,r0,0xffff
    2a34:	07 ff fe 07 	l.jal 2250 <usage>
    2a38:	15 00 00 00 	l.nop 0x0
    2a3c:	a8 80 ff ff 	l.ori r4,r0,0xffff
    2a40:	84 61 00 1c 	l.lwz r3,0x1c(r1)
    2a44:	e4 a3 20 00 	l.sfleu r3,r4
    2a48:	10 00 00 05 	l.bf 2a5c <parse_switches.clone.0+0x5f4>
    2a4c:	90 61 00 18 	l.lbs r3,0x18(r1)
    2a50:	07 ff fe 00 	l.jal 2250 <usage>
    2a54:	15 00 00 00 	l.nop 0x0
    2a58:	90 61 00 18 	l.lbs r3,0x18(r1)
    2a5c:	ac 83 00 42 	l.xori r4,r3,0x42
    2a60:	a4 84 00 ff 	l.andi r4,r4,0xff
    2a64:	9c 84 ff ff 	l.addi r4,r4,0xffffffff
    2a68:	bd 84 00 00 	l.sfltsi r4,0x0
    2a6c:	10 00 00 07 	l.bf 2a88 <parse_switches.clone.0+0x620>
    2a70:	ac 63 00 62 	l.xori r3,r3,0x62
    2a74:	a4 63 00 ff 	l.andi r3,r3,0xff
    2a78:	9c 63 ff ff 	l.addi r3,r3,0xffffffff
    2a7c:	bd 63 00 00 	l.sfgesi r3,0x0
    2a80:	10 00 00 07 	l.bf 2a9c <parse_switches.clone.0+0x634>
    2a84:	84 61 00 1c 	l.lwz r3,0x1c(r1)
    2a88:	84 61 00 1c 	l.lwz r3,0x1c(r1)
    2a8c:	9c a0 00 00 	l.addi r5,r0,0x0
    2a90:	d4 0e 18 c0 	l.sw 0xc0(r14),r3
    2a94:	00 00 00 5b 	l.j 2c00 <parse_switches.clone.0+0x798>
    2a98:	d4 0e 28 c4 	l.sw 0xc4(r14),r5
    2a9c:	00 00 00 59 	l.j 2c00 <parse_switches.clone.0+0x798>
    2aa0:	d4 0e 18 c4 	l.sw 0xc4(r14),r3
    2aa4:	18 80 00 02 	l.movhi r4,0x2
    2aa8:	a8 70 00 00 	l.ori r3,r16,0x0
    2aac:	a8 84 a2 52 	l.ori r4,r4,0xa252
    2ab0:	04 00 10 55 	l.jal 6c04 <keymatch>
    2ab4:	9c a0 00 02 	l.addi r5,r0,0x2
    2ab8:	bc 0b 00 00 	l.sfeqi r11,0x0
    2abc:	10 00 00 0c 	l.bf 2aec <parse_switches.clone.0+0x684>
    2ac0:	18 80 00 02 	l.movhi r4,0x2
    2ac4:	9c 42 00 01 	l.addi r2,r2,0x1
    2ac8:	e5 82 a0 00 	l.sflts r2,r20
    2acc:	10 00 00 05 	l.bf 2ae0 <parse_switches.clone.0+0x678>
    2ad0:	b8 62 00 02 	l.slli r3,r2,0x2
    2ad4:	07 ff fd df 	l.jal 2250 <usage>
    2ad8:	15 00 00 00 	l.nop 0x0
    2adc:	b8 62 00 02 	l.slli r3,r2,0x2
    2ae0:	e0 72 18 00 	l.add r3,r18,r3
    2ae4:	00 00 00 47 	l.j 2c00 <parse_switches.clone.0+0x798>
    2ae8:	87 43 00 00 	l.lwz r26,0x0(r3)
    2aec:	a8 70 00 00 	l.ori r3,r16,0x0
    2af0:	a8 84 a2 59 	l.ori r4,r4,0xa259
    2af4:	04 00 10 44 	l.jal 6c04 <keymatch>
    2af8:	9c a0 00 02 	l.addi r5,r0,0x2
    2afc:	bc 0b 00 00 	l.sfeqi r11,0x0
    2b00:	10 00 00 0c 	l.bf 2b30 <parse_switches.clone.0+0x6c8>
    2b04:	18 80 00 02 	l.movhi r4,0x2
    2b08:	9c 42 00 01 	l.addi r2,r2,0x1
    2b0c:	e5 82 a0 00 	l.sflts r2,r20
    2b10:	10 00 00 05 	l.bf 2b24 <parse_switches.clone.0+0x6bc>
    2b14:	b8 62 00 02 	l.slli r3,r2,0x2
    2b18:	07 ff fd ce 	l.jal 2250 <usage>
    2b1c:	15 00 00 00 	l.nop 0x0
    2b20:	b8 62 00 02 	l.slli r3,r2,0x2
    2b24:	e0 72 18 00 	l.add r3,r18,r3
    2b28:	00 00 00 36 	l.j 2c00 <parse_switches.clone.0+0x798>
    2b2c:	86 c3 00 00 	l.lwz r22,0x0(r3)
    2b30:	a8 70 00 00 	l.ori r3,r16,0x0
    2b34:	a8 84 a2 5f 	l.ori r4,r4,0xa25f
    2b38:	04 00 10 33 	l.jal 6c04 <keymatch>
    2b3c:	9c a0 00 02 	l.addi r5,r0,0x2
    2b40:	bc 0b 00 00 	l.sfeqi r11,0x0
    2b44:	10 00 00 1e 	l.bf 2bbc <parse_switches.clone.0+0x754>
    2b48:	18 80 00 02 	l.movhi r4,0x2
    2b4c:	9c 42 00 01 	l.addi r2,r2,0x1
    2b50:	e5 82 a0 00 	l.sflts r2,r20
    2b54:	10 00 00 05 	l.bf 2b68 <parse_switches.clone.0+0x700>
    2b58:	b8 62 00 02 	l.slli r3,r2,0x2
    2b5c:	07 ff fd bd 	l.jal 2250 <usage>
    2b60:	15 00 00 00 	l.nop 0x0
    2b64:	b8 62 00 02 	l.slli r3,r2,0x2
    2b68:	9c 81 00 18 	l.addi r4,r1,0x18
    2b6c:	e0 72 18 00 	l.add r3,r18,r3
    2b70:	d4 01 20 00 	l.sw 0x0(r1),r4
    2b74:	18 80 00 02 	l.movhi r4,0x2
    2b78:	84 63 00 00 	l.lwz r3,0x0(r3)
    2b7c:	04 00 58 e0 	l.jal 18efc <sscanf>
    2b80:	a8 84 bc 0f 	l.ori r4,r4,0xbc0f
    2b84:	bc 0b 00 01 	l.sfeqi r11,0x1
    2b88:	10 00 00 05 	l.bf 2b9c <parse_switches.clone.0+0x734>
    2b8c:	84 61 00 18 	l.lwz r3,0x18(r1)
    2b90:	07 ff fd b0 	l.jal 2250 <usage>
    2b94:	15 00 00 00 	l.nop 0x0
    2b98:	84 61 00 18 	l.lwz r3,0x18(r1)
    2b9c:	bc a3 00 64 	l.sfleui r3,0x64
    2ba0:	10 00 00 05 	l.bf 2bb4 <parse_switches.clone.0+0x74c>
    2ba4:	84 61 00 18 	l.lwz r3,0x18(r1)
    2ba8:	07 ff fd aa 	l.jal 2250 <usage>
    2bac:	15 00 00 00 	l.nop 0x0
    2bb0:	84 61 00 18 	l.lwz r3,0x18(r1)
    2bb4:	00 00 00 13 	l.j 2c00 <parse_switches.clone.0+0x798>
    2bb8:	d4 0e 18 b8 	l.sw 0xb8(r14),r3
    2bbc:	a8 70 00 00 	l.ori r3,r16,0x0
    2bc0:	a8 84 a7 a2 	l.ori r4,r4,0xa7a2
    2bc4:	04 00 10 10 	l.jal 6c04 <keymatch>
    2bc8:	9c a0 00 01 	l.addi r5,r0,0x1
    2bcc:	bc 0b 00 00 	l.sfeqi r11,0x0
    2bd0:	10 00 00 05 	l.bf 2be4 <parse_switches.clone.0+0x77c>
    2bd4:	18 a0 00 03 	l.movhi r5,0x3
    2bd8:	a8 a5 02 44 	l.ori r5,r5,0x244
    2bdc:	00 00 00 09 	l.j 2c00 <parse_switches.clone.0+0x798>
    2be0:	d4 05 c0 00 	l.sw 0x0(r5),r24
    2be4:	07 ff fd 9b 	l.jal 2250 <usage>
    2be8:	9c 42 00 01 	l.addi r2,r2,0x1
    2bec:	00 00 00 07 	l.j 2c08 <parse_switches.clone.0+0x7a0>
    2bf0:	e5 82 a0 00 	l.sflts r2,r20
    2bf4:	00 00 00 03 	l.j 2c00 <parse_switches.clone.0+0x798>
    2bf8:	9f c0 00 01 	l.addi r30,r0,0x1
    2bfc:	d4 01 18 10 	l.sw 0x10(r1),r3
    2c00:	9c 42 00 01 	l.addi r2,r2,0x1
    2c04:	e5 82 a0 00 	l.sflts r2,r20
    2c08:	13 ff fe 3f 	l.bf 2504 <parse_switches.clone.0+0x9c>
    2c0c:	b8 62 00 02 	l.slli r3,r2,0x2
    2c10:	84 81 00 14 	l.lwz r4,0x14(r1)
    2c14:	bc 04 00 00 	l.sfeqi r4,0x0
    2c18:	10 00 00 36 	l.bf 2cf0 <parse_switches.clone.0+0x888>
    2c1c:	a8 be 00 00 	l.ori r5,r30,0x0
    2c20:	a8 6e 00 00 	l.ori r3,r14,0x0
    2c24:	04 00 12 de 	l.jal 779c <jpeg_set_quality>
    2c28:	84 81 00 20 	l.lwz r4,0x20(r1)
    2c2c:	84 a1 00 08 	l.lwz r5,0x8(r1)
    2c30:	bc 05 00 00 	l.sfeqi r5,0x0
    2c34:	10 00 00 0b 	l.bf 2c60 <parse_switches.clone.0+0x7f8>
    2c38:	a8 85 00 00 	l.ori r4,r5,0x0
    2c3c:	a8 6e 00 00 	l.ori r3,r14,0x0
    2c40:	84 a1 00 0c 	l.lwz r5,0xc(r1)
    2c44:	04 00 0d df 	l.jal 63c0 <read_quant_tables>
    2c48:	a8 de 00 00 	l.ori r6,r30,0x0
    2c4c:	bc 2b 00 00 	l.sfnei r11,0x0
    2c50:	10 00 00 05 	l.bf 2c64 <parse_switches.clone.0+0x7fc>
    2c54:	bc 1c 00 00 	l.sfeqi r28,0x0
    2c58:	07 ff fd 7e 	l.jal 2250 <usage>
    2c5c:	15 00 00 00 	l.nop 0x0
    2c60:	bc 1c 00 00 	l.sfeqi r28,0x0
    2c64:	10 00 00 09 	l.bf 2c88 <parse_switches.clone.0+0x820>
    2c68:	a8 6e 00 00 	l.ori r3,r14,0x0
    2c6c:	04 00 0f 3a 	l.jal 6954 <set_quant_slots>
    2c70:	a8 9c 00 00 	l.ori r4,r28,0x0
    2c74:	bc 2b 00 00 	l.sfnei r11,0x0
    2c78:	10 00 00 05 	l.bf 2c8c <parse_switches.clone.0+0x824>
    2c7c:	bc 1a 00 00 	l.sfeqi r26,0x0
    2c80:	07 ff fd 74 	l.jal 2250 <usage>
    2c84:	15 00 00 00 	l.nop 0x0
    2c88:	bc 1a 00 00 	l.sfeqi r26,0x0
    2c8c:	10 00 00 09 	l.bf 2cb0 <parse_switches.clone.0+0x848>
    2c90:	a8 6e 00 00 	l.ori r3,r14,0x0
    2c94:	04 00 0f 79 	l.jal 6a78 <set_sample_factors>
    2c98:	a8 9a 00 00 	l.ori r4,r26,0x0
    2c9c:	bc 2b 00 00 	l.sfnei r11,0x0
    2ca0:	10 00 00 05 	l.bf 2cb4 <parse_switches.clone.0+0x84c>
    2ca4:	84 61 00 10 	l.lwz r3,0x10(r1)
    2ca8:	07 ff fd 6a 	l.jal 2250 <usage>
    2cac:	15 00 00 00 	l.nop 0x0
    2cb0:	84 61 00 10 	l.lwz r3,0x10(r1)
    2cb4:	bc 03 00 00 	l.sfeqi r3,0x0
    2cb8:	10 00 00 05 	l.bf 2ccc <parse_switches.clone.0+0x864>
    2cbc:	bc 16 00 00 	l.sfeqi r22,0x0
    2cc0:	04 00 14 29 	l.jal 7d64 <jpeg_simple_progression>
    2cc4:	a8 6e 00 00 	l.ori r3,r14,0x0
    2cc8:	bc 16 00 00 	l.sfeqi r22,0x0
    2ccc:	10 00 00 09 	l.bf 2cf0 <parse_switches.clone.0+0x888>
    2cd0:	a8 6e 00 00 	l.ori r3,r14,0x0
    2cd4:	04 00 0e 39 	l.jal 65b8 <read_scan_script>
    2cd8:	a8 96 00 00 	l.ori r4,r22,0x0
    2cdc:	bc 2b 00 00 	l.sfnei r11,0x0
    2ce0:	10 00 00 04 	l.bf 2cf0 <parse_switches.clone.0+0x888>
    2ce4:	15 00 00 00 	l.nop 0x0
    2ce8:	07 ff fd 5a 	l.jal 2250 <usage>
    2cec:	15 00 00 00 	l.nop 0x0
    2cf0:	9c 21 00 50 	l.addi r1,r1,0x50
    2cf4:	a9 62 00 00 	l.ori r11,r2,0x0
    2cf8:	85 21 ff fc 	l.lwz r9,0xfffffffc(r1)
    2cfc:	84 41 ff d4 	l.lwz r2,0xffffffd4(r1)
    2d00:	85 c1 ff d8 	l.lwz r14,0xffffffd8(r1)
    2d04:	86 01 ff dc 	l.lwz r16,0xffffffdc(r1)
    2d08:	86 41 ff e0 	l.lwz r18,0xffffffe0(r1)
    2d0c:	86 81 ff e4 	l.lwz r20,0xffffffe4(r1)
    2d10:	86 c1 ff e8 	l.lwz r22,0xffffffe8(r1)
    2d14:	87 01 ff ec 	l.lwz r24,0xffffffec(r1)
    2d18:	87 41 ff f0 	l.lwz r26,0xfffffff0(r1)
    2d1c:	87 81 ff f4 	l.lwz r28,0xfffffff4(r1)
    2d20:	44 00 48 00 	l.jr r9
    2d24:	87 c1 ff f8 	l.lwz r30,0xfffffff8(r1)

00002d28 <main>:
    2d28:	d7 e1 b7 f8 	l.sw 0xfffffff8(r1),r22
    2d2c:	aa c3 00 00 	l.ori r22,r3,0x0
    2d30:	18 60 00 03 	l.movhi r3,0x3
    2d34:	d7 e1 17 e4 	l.sw 0xffffffe4(r1),r2
    2d38:	a8 63 02 3c 	l.ori r3,r3,0x23c
    2d3c:	84 44 00 00 	l.lwz r2,0x0(r4)
    2d40:	d7 e1 a7 f4 	l.sw 0xfffffff4(r1),r20
    2d44:	d7 e1 4f fc 	l.sw 0xfffffffc(r1),r9
    2d48:	d7 e1 77 e8 	l.sw 0xffffffe8(r1),r14
    2d4c:	d7 e1 87 ec 	l.sw 0xffffffec(r1),r16
    2d50:	d7 e1 97 f0 	l.sw 0xfffffff0(r1),r18
    2d54:	d4 03 10 00 	l.sw 0x0(r3),r2
    2d58:	9c 21 fd f0 	l.addi r1,r1,0xfffffdf0
    2d5c:	bc 02 00 00 	l.sfeqi r2,0x0
    2d60:	10 00 00 06 	l.bf 2d78 <main+0x50>
    2d64:	aa 84 00 00 	l.ori r20,r4,0x0
    2d68:	90 42 00 00 	l.lbs r2,0x0(r2)
    2d6c:	bc 22 00 00 	l.sfnei r2,0x0
    2d70:	10 00 00 07 	l.bf 2d8c <main+0x64>
    2d74:	15 00 00 00 	l.nop 0x0
    2d78:	18 60 00 02 	l.movhi r3,0x2
    2d7c:	18 40 00 03 	l.movhi r2,0x3
    2d80:	a8 63 a2 66 	l.ori r3,r3,0xa266
    2d84:	a8 42 02 3c 	l.ori r2,r2,0x23c
    2d88:	d4 02 18 00 	l.sw 0x0(r2),r3
    2d8c:	9c 61 01 70 	l.addi r3,r1,0x170
    2d90:	04 00 35 af 	l.jal 1044c <jpeg_std_error>
    2d94:	9c 41 00 08 	l.addi r2,r1,0x8
    2d98:	a8 62 00 00 	l.ori r3,r2,0x0
    2d9c:	9c 80 00 3d 	l.addi r4,r0,0x3d
    2da0:	9c a0 01 68 	l.addi r5,r0,0x168
    2da4:	04 00 0f c1 	l.jal 6ca8 <jpeg_CreateCompress>
    2da8:	d4 01 58 08 	l.sw 0x8(r1),r11
    2dac:	18 60 00 02 	l.movhi r3,0x2
    2db0:	a8 63 a7 c8 	l.ori r3,r3,0xa7c8
    2db4:	d4 01 19 e8 	l.sw 0x1e8(r1),r3
    2db8:	9c 60 03 e8 	l.addi r3,r0,0x3e8
    2dbc:	d4 01 19 ec 	l.sw 0x1ec(r1),r3
    2dc0:	9c 60 04 13 	l.addi r3,r0,0x413
    2dc4:	d4 01 19 f0 	l.sw 0x1f0(r1),r3
    2dc8:	9c 60 00 02 	l.addi r3,r0,0x2
    2dcc:	d4 01 18 2c 	l.sw 0x2c(r1),r3
    2dd0:	04 00 13 84 	l.jal 7be0 <jpeg_set_defaults>
    2dd4:	a8 62 00 00 	l.ori r3,r2,0x0
    2dd8:	a8 62 00 00 	l.ori r3,r2,0x0
    2ddc:	a8 96 00 00 	l.ori r4,r22,0x0
    2de0:	a8 b4 00 00 	l.ori r5,r20,0x0
    2de4:	07 ff fd a1 	l.jal 2468 <parse_switches.clone.0>
    2de8:	9c c0 00 00 	l.addi r6,r0,0x0
    2dec:	9c 76 ff ff 	l.addi r3,r22,0xffffffff
    2df0:	e5 6b 18 00 	l.sfges r11,r3
    2df4:	10 00 00 0f 	l.bf 2e30 <main+0x108>
    2df8:	a8 4b 00 00 	l.ori r2,r11,0x0
    2dfc:	18 60 00 02 	l.movhi r3,0x2
    2e00:	18 80 00 03 	l.movhi r4,0x3
    2e04:	a8 63 f7 f4 	l.ori r3,r3,0xf7f4
    2e08:	a8 84 02 3c 	l.ori r4,r4,0x23c
    2e0c:	84 63 00 00 	l.lwz r3,0x0(r3)
    2e10:	84 84 00 00 	l.lwz r4,0x0(r4)
    2e14:	84 63 00 0c 	l.lwz r3,0xc(r3)
    2e18:	d4 01 20 00 	l.sw 0x0(r1),r4
    2e1c:	18 80 00 02 	l.movhi r4,0x2
    2e20:	04 00 49 23 	l.jal 152ac <fprintf>
    2e24:	a8 84 a2 6c 	l.ori r4,r4,0xa26c
    2e28:	07 ff fd 0a 	l.jal 2250 <usage>
    2e2c:	15 00 00 00 	l.nop 0x0
    2e30:	e5 62 b0 00 	l.sfges r2,r22
    2e34:	10 00 00 0c 	l.bf 2e64 <main+0x13c>
    2e38:	b8 42 00 02 	l.slli r2,r2,0x2
    2e3c:	18 80 00 02 	l.movhi r4,0x2
    2e40:	e0 54 10 00 	l.add r2,r20,r2
    2e44:	a8 84 a2 85 	l.ori r4,r4,0xa285
    2e48:	04 00 49 06 	l.jal 15260 <fopen>
    2e4c:	84 62 00 00 	l.lwz r3,0x0(r2)
    2e50:	bc 2b 00 00 	l.sfnei r11,0x0
    2e54:	10 00 00 07 	l.bf 2e70 <main+0x148>
    2e58:	a9 cb 00 00 	l.ori r14,r11,0x0
    2e5c:	00 00 00 11 	l.j 2ea0 <main+0x178>
    2e60:	18 60 00 02 	l.movhi r3,0x2
    2e64:	04 00 0f 87 	l.jal 6c80 <read_stdin>
    2e68:	15 00 00 00 	l.nop 0x0
    2e6c:	a9 cb 00 00 	l.ori r14,r11,0x0
    2e70:	18 40 00 03 	l.movhi r2,0x3
    2e74:	a8 42 02 40 	l.ori r2,r2,0x240
    2e78:	84 62 00 00 	l.lwz r3,0x0(r2)
    2e7c:	bc 03 00 00 	l.sfeqi r3,0x0
    2e80:	10 00 00 16 	l.bf 2ed8 <main+0x1b0>
    2e84:	18 80 00 02 	l.movhi r4,0x2
    2e88:	04 00 48 f6 	l.jal 15260 <fopen>
    2e8c:	a8 84 a2 9b 	l.ori r4,r4,0xa29b
    2e90:	bc 2b 00 00 	l.sfnei r11,0x0
    2e94:	10 00 00 14 	l.bf 2ee4 <main+0x1bc>
    2e98:	aa 4b 00 00 	l.ori r18,r11,0x0
    2e9c:	18 60 00 02 	l.movhi r3,0x2
    2ea0:	18 80 00 03 	l.movhi r4,0x3
    2ea4:	a8 63 f7 f4 	l.ori r3,r3,0xf7f4
    2ea8:	a8 84 02 3c 	l.ori r4,r4,0x23c
    2eac:	84 63 00 00 	l.lwz r3,0x0(r3)
    2eb0:	84 84 00 00 	l.lwz r4,0x0(r4)
    2eb4:	84 63 00 0c 	l.lwz r3,0xc(r3)
    2eb8:	d4 01 20 00 	l.sw 0x0(r1),r4
    2ebc:	18 80 00 02 	l.movhi r4,0x2
    2ec0:	84 42 00 00 	l.lwz r2,0x0(r2)
    2ec4:	a8 84 a2 88 	l.ori r4,r4,0xa288
    2ec8:	04 00 48 f9 	l.jal 152ac <fprintf>
    2ecc:	d4 01 10 04 	l.sw 0x4(r1),r2
    2ed0:	00 00 00 98 	l.j 3130 <main+0x408>
    2ed4:	9c 60 00 01 	l.addi r3,r0,0x1
    2ed8:	04 00 0f 6f 	l.jal 6c94 <write_stdout>
    2edc:	15 00 00 00 	l.nop 0x0
    2ee0:	aa 4b 00 00 	l.ori r18,r11,0x0
    2ee4:	18 40 00 03 	l.movhi r2,0x3
    2ee8:	a8 42 02 44 	l.ori r2,r2,0x244
    2eec:	84 42 00 00 	l.lwz r2,0x0(r2)
    2ef0:	bc 02 00 00 	l.sfeqi r2,0x0
    2ef4:	0c 00 00 44 	l.bnf 3004 <main+0x2dc>
    2ef8:	15 00 00 00 	l.nop 0x0
    2efc:	84 4e 00 04 	l.lwz r2,0x4(r14)
    2f00:	9c 42 ff ff 	l.addi r2,r2,0xffffffff
    2f04:	bd 62 00 00 	l.sfgesi r2,0x0
    2f08:	10 00 00 0c 	l.bf 2f38 <main+0x210>
    2f0c:	d4 0e 10 04 	l.sw 0x4(r14),r2
    2f10:	18 40 00 02 	l.movhi r2,0x2
    2f14:	a8 8e 00 00 	l.ori r4,r14,0x0
    2f18:	a8 42 f7 f4 	l.ori r2,r2,0xf7f4
    2f1c:	04 00 57 79 	l.jal 18d00 <__srget_r>
    2f20:	84 62 00 00 	l.lwz r3,0x0(r2)
    2f24:	bc 0b ff ff 	l.sfeqi r11,0xffffffff
    2f28:	10 00 00 09 	l.bf 2f4c <main+0x224>
    2f2c:	a8 4b 00 00 	l.ori r2,r11,0x0
    2f30:	00 00 00 0e 	l.j 2f68 <main+0x240>
    2f34:	a8 62 00 00 	l.ori r3,r2,0x0
    2f38:	84 6e 00 00 	l.lwz r3,0x0(r14)
    2f3c:	8c 43 00 00 	l.lbz r2,0x0(r3)
    2f40:	9c 63 00 01 	l.addi r3,r3,0x1
    2f44:	00 00 00 08 	l.j 2f64 <main+0x23c>
    2f48:	d4 0e 18 00 	l.sw 0x0(r14),r3
    2f4c:	84 61 00 08 	l.lwz r3,0x8(r1)
    2f50:	9c 80 00 29 	l.addi r4,r0,0x29
    2f54:	d4 03 20 14 	l.sw 0x14(r3),r4
    2f58:	84 83 00 00 	l.lwz r4,0x0(r3)
    2f5c:	48 00 20 00 	l.jalr r4
    2f60:	9c 61 00 08 	l.addi r3,r1,0x8
    2f64:	a8 62 00 00 	l.ori r3,r2,0x0
    2f68:	04 00 66 f6 	l.jal 1cb40 <ungetc>
    2f6c:	a8 8e 00 00 	l.ori r4,r14,0x0
    2f70:	bc 2b ff ff 	l.sfnei r11,0xffffffff
    2f74:	10 00 00 09 	l.bf 2f98 <main+0x270>
    2f78:	bc 02 00 47 	l.sfeqi r2,0x47
    2f7c:	84 61 00 08 	l.lwz r3,0x8(r1)
    2f80:	9c 80 04 10 	l.addi r4,r0,0x410
    2f84:	d4 03 20 14 	l.sw 0x14(r3),r4
    2f88:	84 83 00 00 	l.lwz r4,0x0(r3)
    2f8c:	48 00 20 00 	l.jalr r4
    2f90:	9c 61 00 08 	l.addi r3,r1,0x8
    2f94:	bc 02 00 47 	l.sfeqi r2,0x47
    2f98:	10 00 00 13 	l.bf 2fe4 <main+0x2bc>
    2f9c:	bd 42 00 47 	l.sfgtsi r2,0x47
    2fa0:	10 00 00 09 	l.bf 2fc4 <main+0x29c>
    2fa4:	bc 02 00 50 	l.sfeqi r2,0x50
    2fa8:	bc 02 00 00 	l.sfeqi r2,0x0
    2fac:	10 00 00 16 	l.bf 3004 <main+0x2dc>
    2fb0:	bc 02 00 42 	l.sfeqi r2,0x42
    2fb4:	0c 00 00 18 	l.bnf 3014 <main+0x2ec>
    2fb8:	15 00 00 00 	l.nop 0x0
    2fbc:	00 00 00 06 	l.j 2fd4 <main+0x2ac>
    2fc0:	15 00 00 00 	l.nop 0x0
    2fc4:	0c 00 00 14 	l.bnf 3014 <main+0x2ec>
    2fc8:	15 00 00 00 	l.nop 0x0
    2fcc:	00 00 00 0a 	l.j 2ff4 <main+0x2cc>
    2fd0:	15 00 00 00 	l.nop 0x0
    2fd4:	04 00 0c 2e 	l.jal 608c <jinit_read_bmp>
    2fd8:	9c 61 00 08 	l.addi r3,r1,0x8
    2fdc:	00 00 00 15 	l.j 3030 <main+0x308>
    2fe0:	a8 4b 00 00 	l.ori r2,r11,0x0
    2fe4:	04 00 06 79 	l.jal 49c8 <jinit_read_gif>
    2fe8:	9c 61 00 08 	l.addi r3,r1,0x8
    2fec:	00 00 00 11 	l.j 3030 <main+0x308>
    2ff0:	a8 4b 00 00 	l.ori r2,r11,0x0
    2ff4:	04 00 03 1b 	l.jal 3c60 <jinit_read_ppm>
    2ff8:	9c 61 00 08 	l.addi r3,r1,0x8
    2ffc:	00 00 00 0d 	l.j 3030 <main+0x308>
    3000:	a8 4b 00 00 	l.ori r2,r11,0x0
    3004:	04 00 09 2f 	l.jal 54c0 <jinit_read_targa>
    3008:	9c 61 00 08 	l.addi r3,r1,0x8
    300c:	00 00 00 09 	l.j 3030 <main+0x308>
    3010:	a8 4b 00 00 	l.ori r2,r11,0x0
    3014:	84 41 00 08 	l.lwz r2,0x8(r1)
    3018:	9c 60 04 11 	l.addi r3,r0,0x411
    301c:	d4 02 18 14 	l.sw 0x14(r2),r3
    3020:	84 42 00 00 	l.lwz r2,0x0(r2)
    3024:	48 00 10 00 	l.jalr r2
    3028:	9c 61 00 08 	l.addi r3,r1,0x8
    302c:	9c 40 00 00 	l.addi r2,r0,0x0
    3030:	9e 01 00 08 	l.addi r16,r1,0x8
    3034:	84 a2 00 00 	l.lwz r5,0x0(r2)
    3038:	a8 82 00 00 	l.ori r4,r2,0x0
    303c:	a8 70 00 00 	l.ori r3,r16,0x0
    3040:	48 00 28 00 	l.jalr r5
    3044:	d4 02 70 0c 	l.sw 0xc(r2),r14
    3048:	04 00 12 be 	l.jal 7b40 <jpeg_default_colorspace>
    304c:	a8 70 00 00 	l.ori r3,r16,0x0
    3050:	a8 70 00 00 	l.ori r3,r16,0x0
    3054:	a8 96 00 00 	l.ori r4,r22,0x0
    3058:	a8 b4 00 00 	l.ori r5,r20,0x0
    305c:	07 ff fd 03 	l.jal 2468 <parse_switches.clone.0>
    3060:	9c c0 00 01 	l.addi r6,r0,0x1
    3064:	a8 70 00 00 	l.ori r3,r16,0x0
    3068:	04 00 14 6b 	l.jal 8214 <jpeg_stdio_dest>
    306c:	a8 92 00 00 	l.ori r4,r18,0x0
    3070:	a8 70 00 00 	l.ori r3,r16,0x0
    3074:	04 00 10 29 	l.jal 7118 <jpeg_start_compress>
    3078:	9c 80 00 01 	l.addi r4,r0,0x1
    307c:	00 00 00 0b 	l.j 30a8 <main+0x380>
    3080:	84 61 00 24 	l.lwz r3,0x24(r1)
    3084:	a8 70 00 00 	l.ori r3,r16,0x0
    3088:	85 62 00 04 	l.lwz r11,0x4(r2)
    308c:	48 00 58 00 	l.jalr r11
    3090:	a8 82 00 00 	l.ori r4,r2,0x0
    3094:	a8 70 00 00 	l.ori r3,r16,0x0
    3098:	84 82 00 10 	l.lwz r4,0x10(r2)
    309c:	04 00 10 51 	l.jal 71e0 <jpeg_write_scanlines>
    30a0:	a8 ab 00 00 	l.ori r5,r11,0x0
    30a4:	84 61 00 24 	l.lwz r3,0x24(r1)
    30a8:	84 81 00 e0 	l.lwz r4,0xe0(r1)
    30ac:	e4 84 18 00 	l.sfltu r4,r3
    30b0:	13 ff ff f5 	l.bf 3084 <main+0x35c>
    30b4:	a8 82 00 00 	l.ori r4,r2,0x0
    30b8:	84 a2 00 08 	l.lwz r5,0x8(r2)
    30bc:	a8 70 00 00 	l.ori r3,r16,0x0
    30c0:	48 00 28 00 	l.jalr r5
    30c4:	18 40 00 02 	l.movhi r2,0x2
    30c8:	a8 70 00 00 	l.ori r3,r16,0x0
    30cc:	04 00 0f 66 	l.jal 6e64 <jpeg_finish_compress>
    30d0:	a8 42 f7 f4 	l.ori r2,r2,0xf7f4
    30d4:	04 00 0f 3c 	l.jal 6dc4 <jpeg_destroy_compress>
    30d8:	a8 70 00 00 	l.ori r3,r16,0x0
    30dc:	84 42 00 00 	l.lwz r2,0x0(r2)
    30e0:	84 42 00 04 	l.lwz r2,0x4(r2)
    30e4:	e4 0e 10 00 	l.sfeq r14,r2
    30e8:	10 00 00 05 	l.bf 30fc <main+0x3d4>
    30ec:	18 40 00 02 	l.movhi r2,0x2
    30f0:	04 00 46 2d 	l.jal 149a4 <fclose>
    30f4:	a8 6e 00 00 	l.ori r3,r14,0x0
    30f8:	18 40 00 02 	l.movhi r2,0x2
    30fc:	a8 42 f7 f4 	l.ori r2,r2,0xf7f4
    3100:	84 42 00 00 	l.lwz r2,0x0(r2)
    3104:	84 42 00 08 	l.lwz r2,0x8(r2)
    3108:	e4 12 10 00 	l.sfeq r18,r2
    310c:	10 00 00 05 	l.bf 3120 <main+0x3f8>
    3110:	84 61 01 dc 	l.lwz r3,0x1dc(r1)
    3114:	04 00 46 24 	l.jal 149a4 <fclose>
    3118:	a8 72 00 00 	l.ori r3,r18,0x0
    311c:	84 61 01 dc 	l.lwz r3,0x1dc(r1)
    3120:	bc 03 00 00 	l.sfeqi r3,0x0
    3124:	10 00 00 03 	l.bf 3130 <main+0x408>
    3128:	15 00 00 00 	l.nop 0x0
    312c:	9c 60 00 02 	l.addi r3,r0,0x2
    3130:	04 00 45 b8 	l.jal 14810 <exit>
    3134:	15 00 00 00 	l.nop 0x0

00003138 <finish_input_ppm>:
    3138:	44 00 48 00 	l.jr r9
    313c:	15 00 00 00 	l.nop 0x0

00003140 <pbm_getc>:
    3140:	d7 e1 17 f4 	l.sw 0xfffffff4(r1),r2
    3144:	a8 43 00 00 	l.ori r2,r3,0x0
    3148:	84 63 00 04 	l.lwz r3,0x4(r3)
    314c:	d7 e1 4f fc 	l.sw 0xfffffffc(r1),r9
    3150:	9c 63 ff ff 	l.addi r3,r3,0xffffffff
    3154:	d7 e1 77 f8 	l.sw 0xfffffff8(r1),r14
    3158:	d4 02 18 04 	l.sw 0x4(r2),r3
    315c:	bd 63 00 00 	l.sfgesi r3,0x0
    3160:	10 00 00 09 	l.bf 3184 <pbm_getc+0x44>
    3164:	9c 21 ff f4 	l.addi r1,r1,0xfffffff4
    3168:	18 60 00 02 	l.movhi r3,0x2
    316c:	a8 82 00 00 	l.ori r4,r2,0x0
    3170:	a8 63 f7 f4 	l.ori r3,r3,0xf7f4
    3174:	04 00 56 e3 	l.jal 18d00 <__srget_r>
    3178:	84 63 00 00 	l.lwz r3,0x0(r3)
    317c:	00 00 00 07 	l.j 3198 <pbm_getc+0x58>
    3180:	bc 2b 00 23 	l.sfnei r11,0x23
    3184:	84 62 00 00 	l.lwz r3,0x0(r2)
    3188:	8d 63 00 00 	l.lbz r11,0x0(r3)
    318c:	9c 63 00 01 	l.addi r3,r3,0x1
    3190:	d4 02 18 00 	l.sw 0x0(r2),r3
    3194:	bc 2b 00 23 	l.sfnei r11,0x23
    3198:	10 00 00 1d 	l.bf 320c <pbm_getc+0xcc>
    319c:	15 00 00 00 	l.nop 0x0
    31a0:	19 c0 00 02 	l.movhi r14,0x2
    31a4:	a9 ce f7 f4 	l.ori r14,r14,0xf7f4
    31a8:	84 62 00 04 	l.lwz r3,0x4(r2)
    31ac:	9c 63 ff ff 	l.addi r3,r3,0xffffffff
    31b0:	bd 63 00 00 	l.sfgesi r3,0x0
    31b4:	10 00 00 07 	l.bf 31d0 <pbm_getc+0x90>
    31b8:	d4 02 18 04 	l.sw 0x4(r2),r3
    31bc:	84 6e 00 00 	l.lwz r3,0x0(r14)
    31c0:	04 00 56 d0 	l.jal 18d00 <__srget_r>
    31c4:	a8 82 00 00 	l.ori r4,r2,0x0
    31c8:	00 00 00 07 	l.j 31e4 <pbm_getc+0xa4>
    31cc:	ac 6b ff ff 	l.xori r3,r11,0xffffffff
    31d0:	84 62 00 00 	l.lwz r3,0x0(r2)
    31d4:	8d 63 00 00 	l.lbz r11,0x0(r3)
    31d8:	9c 63 00 01 	l.addi r3,r3,0x1
    31dc:	d4 02 18 00 	l.sw 0x0(r2),r3
    31e0:	ac 6b ff ff 	l.xori r3,r11,0xffffffff
    31e4:	e0 80 18 02 	l.sub r4,r0,r3
    31e8:	e0 64 18 04 	l.or r3,r4,r3
    31ec:	bd 63 00 00 	l.sfgesi r3,0x0
    31f0:	10 00 00 07 	l.bf 320c <pbm_getc+0xcc>
    31f4:	ac 6b 00 0a 	l.xori r3,r11,0xa
    31f8:	e0 80 18 02 	l.sub r4,r0,r3
    31fc:	e0 64 18 04 	l.or r3,r4,r3
    3200:	bd 83 00 00 	l.sfltsi r3,0x0
    3204:	13 ff ff e9 	l.bf 31a8 <pbm_getc+0x68>
    3208:	15 00 00 00 	l.nop 0x0
    320c:	9c 21 00 0c 	l.addi r1,r1,0xc
    3210:	85 21 ff fc 	l.lwz r9,0xfffffffc(r1)
    3214:	84 41 ff f4 	l.lwz r2,0xfffffff4(r1)
    3218:	44 00 48 00 	l.jr r9
    321c:	85 c1 ff f8 	l.lwz r14,0xfffffff8(r1)

00003220 <read_pbm_integer>:
    3220:	d7 e1 77 f0 	l.sw 0xfffffff0(r1),r14
    3224:	d7 e1 87 f4 	l.sw 0xfffffff4(r1),r16
    3228:	d7 e1 97 f8 	l.sw 0xfffffff8(r1),r18
    322c:	d7 e1 4f fc 	l.sw 0xfffffffc(r1),r9
    3230:	d7 e1 17 ec 	l.sw 0xffffffec(r1),r2
    3234:	a9 c3 00 00 	l.ori r14,r3,0x0
    3238:	9c 21 ff ec 	l.addi r1,r1,0xffffffec
    323c:	aa 04 00 00 	l.ori r16,r4,0x0
    3240:	9e 40 00 2a 	l.addi r18,r0,0x2a
    3244:	07 ff ff bf 	l.jal 3140 <pbm_getc>
    3248:	a8 70 00 00 	l.ori r3,r16,0x0
    324c:	bc 2b ff ff 	l.sfnei r11,0xffffffff
    3250:	10 00 00 07 	l.bf 326c <read_pbm_integer+0x4c>
    3254:	a8 4b 00 00 	l.ori r2,r11,0x0
    3258:	84 6e 00 00 	l.lwz r3,0x0(r14)
    325c:	d4 03 90 14 	l.sw 0x14(r3),r18
    3260:	84 83 00 00 	l.lwz r4,0x0(r3)
    3264:	48 00 20 00 	l.jalr r4
    3268:	a8 6e 00 00 	l.ori r3,r14,0x0
    326c:	ac 62 00 09 	l.xori r3,r2,0x9
    3270:	e0 80 18 02 	l.sub r4,r0,r3
    3274:	e0 64 18 04 	l.or r3,r4,r3
    3278:	bd 63 00 00 	l.sfgesi r3,0x0
    327c:	13 ff ff f2 	l.bf 3244 <read_pbm_integer+0x24>
    3280:	ac 62 00 20 	l.xori r3,r2,0x20
    3284:	e0 80 18 02 	l.sub r4,r0,r3
    3288:	e0 64 18 04 	l.or r3,r4,r3
    328c:	bd 63 00 00 	l.sfgesi r3,0x0
    3290:	13 ff ff ed 	l.bf 3244 <read_pbm_integer+0x24>
    3294:	ac 62 00 0d 	l.xori r3,r2,0xd
    3298:	e0 80 18 02 	l.sub r4,r0,r3
    329c:	e0 64 18 04 	l.or r3,r4,r3
    32a0:	bd 63 00 00 	l.sfgesi r3,0x0
    32a4:	13 ff ff e8 	l.bf 3244 <read_pbm_integer+0x24>
    32a8:	ac 62 00 0a 	l.xori r3,r2,0xa
    32ac:	e0 80 18 02 	l.sub r4,r0,r3
    32b0:	e0 64 18 04 	l.or r3,r4,r3
    32b4:	bd 63 00 00 	l.sfgesi r3,0x0
    32b8:	13 ff ff e3 	l.bf 3244 <read_pbm_integer+0x24>
    32bc:	9c 62 ff d0 	l.addi r3,r2,0xffffffd0
    32c0:	bc a3 00 09 	l.sfleui r3,0x9
    32c4:	10 00 00 0c 	l.bf 32f4 <read_pbm_integer+0xd4>
    32c8:	9c 80 04 02 	l.addi r4,r0,0x402
    32cc:	84 6e 00 00 	l.lwz r3,0x0(r14)
    32d0:	d4 03 20 14 	l.sw 0x14(r3),r4
    32d4:	84 83 00 00 	l.lwz r4,0x0(r3)
    32d8:	48 00 20 00 	l.jalr r4
    32dc:	a8 6e 00 00 	l.ori r3,r14,0x0
    32e0:	00 00 00 06 	l.j 32f8 <read_pbm_integer+0xd8>
    32e4:	a8 70 00 00 	l.ori r3,r16,0x0
    32e8:	b8 42 00 03 	l.slli r2,r2,0x3
    32ec:	e0 43 10 00 	l.add r2,r3,r2
    32f0:	e0 42 58 00 	l.add r2,r2,r11
    32f4:	a8 70 00 00 	l.ori r3,r16,0x0
    32f8:	07 ff ff 92 	l.jal 3140 <pbm_getc>
    32fc:	9c 42 ff d0 	l.addi r2,r2,0xffffffd0
    3300:	bd ab 00 2f 	l.sflesi r11,0x2f
    3304:	10 00 00 04 	l.bf 3314 <read_pbm_integer+0xf4>
    3308:	bd ab 00 39 	l.sflesi r11,0x39
    330c:	13 ff ff f7 	l.bf 32e8 <read_pbm_integer+0xc8>
    3310:	e0 62 10 00 	l.add r3,r2,r2
    3314:	9c 21 00 14 	l.addi r1,r1,0x14
    3318:	a9 62 00 00 	l.ori r11,r2,0x0
    331c:	85 21 ff fc 	l.lwz r9,0xfffffffc(r1)
    3320:	84 41 ff ec 	l.lwz r2,0xffffffec(r1)
    3324:	85 c1 ff f0 	l.lwz r14,0xfffffff0(r1)
    3328:	86 01 ff f4 	l.lwz r16,0xfffffff4(r1)
    332c:	44 00 48 00 	l.jr r9
    3330:	86 41 ff f8 	l.lwz r18,0xfffffff8(r1)

00003334 <get_text_rgb_row>:
    3334:	d7 e1 17 e8 	l.sw 0xffffffe8(r1),r2
    3338:	84 44 00 10 	l.lwz r2,0x10(r4)
    333c:	d7 e1 77 ec 	l.sw 0xffffffec(r1),r14
    3340:	d7 e1 87 f0 	l.sw 0xfffffff0(r1),r16
    3344:	d7 e1 97 f4 	l.sw 0xfffffff4(r1),r18
    3348:	d7 e1 a7 f8 	l.sw 0xfffffff8(r1),r20
    334c:	d7 e1 4f fc 	l.sw 0xfffffffc(r1),r9
    3350:	a9 c3 00 00 	l.ori r14,r3,0x0
    3354:	9c 21 ff e8 	l.addi r1,r1,0xffffffe8
    3358:	86 84 00 0c 	l.lwz r20,0xc(r4)
    335c:	86 44 00 24 	l.lwz r18,0x24(r4)
    3360:	84 42 00 00 	l.lwz r2,0x0(r2)
    3364:	00 00 00 15 	l.j 33b8 <get_text_rgb_row+0x84>
    3368:	86 03 00 18 	l.lwz r16,0x18(r3)
    336c:	a8 94 00 00 	l.ori r4,r20,0x0
    3370:	07 ff ff ac 	l.jal 3220 <read_pbm_integer>
    3374:	9e 10 ff ff 	l.addi r16,r16,0xffffffff
    3378:	e1 72 58 00 	l.add r11,r18,r11
    337c:	a8 6e 00 00 	l.ori r3,r14,0x0
    3380:	8d 6b 00 00 	l.lbz r11,0x0(r11)
    3384:	a8 94 00 00 	l.ori r4,r20,0x0
    3388:	07 ff ff a6 	l.jal 3220 <read_pbm_integer>
    338c:	d8 02 58 00 	l.sb 0x0(r2),r11
    3390:	e1 72 58 00 	l.add r11,r18,r11
    3394:	a8 6e 00 00 	l.ori r3,r14,0x0
    3398:	8d 6b 00 00 	l.lbz r11,0x0(r11)
    339c:	a8 94 00 00 	l.ori r4,r20,0x0
    33a0:	07 ff ff a0 	l.jal 3220 <read_pbm_integer>
    33a4:	d8 02 58 01 	l.sb 0x1(r2),r11
    33a8:	e1 72 58 00 	l.add r11,r18,r11
    33ac:	8d 6b 00 00 	l.lbz r11,0x0(r11)
    33b0:	d8 02 58 02 	l.sb 0x2(r2),r11
    33b4:	9c 42 00 03 	l.addi r2,r2,0x3
    33b8:	bc 30 00 00 	l.sfnei r16,0x0
    33bc:	13 ff ff ec 	l.bf 336c <get_text_rgb_row+0x38>
    33c0:	a8 6e 00 00 	l.ori r3,r14,0x0
    33c4:	9c 21 00 18 	l.addi r1,r1,0x18
    33c8:	9d 60 00 01 	l.addi r11,r0,0x1
    33cc:	85 21 ff fc 	l.lwz r9,0xfffffffc(r1)
    33d0:	84 41 ff e8 	l.lwz r2,0xffffffe8(r1)
    33d4:	85 c1 ff ec 	l.lwz r14,0xffffffec(r1)
    33d8:	86 01 ff f0 	l.lwz r16,0xfffffff0(r1)
    33dc:	86 41 ff f4 	l.lwz r18,0xfffffff4(r1)
    33e0:	44 00 48 00 	l.jr r9
    33e4:	86 81 ff f8 	l.lwz r20,0xfffffff8(r1)

000033e8 <get_text_gray_row>:
    33e8:	d7 e1 17 e8 	l.sw 0xffffffe8(r1),r2
    33ec:	84 44 00 10 	l.lwz r2,0x10(r4)
    33f0:	d7 e1 77 ec 	l.sw 0xffffffec(r1),r14
    33f4:	d7 e1 87 f0 	l.sw 0xfffffff0(r1),r16
    33f8:	d7 e1 97 f4 	l.sw 0xfffffff4(r1),r18
    33fc:	d7 e1 a7 f8 	l.sw 0xfffffff8(r1),r20
    3400:	d7 e1 4f fc 	l.sw 0xfffffffc(r1),r9
    3404:	85 c2 00 00 	l.lwz r14,0x0(r2)
    3408:	9c 21 ff e8 	l.addi r1,r1,0xffffffe8
    340c:	aa 03 00 00 	l.ori r16,r3,0x0
    3410:	86 84 00 0c 	l.lwz r20,0xc(r4)
    3414:	86 44 00 24 	l.lwz r18,0x24(r4)
    3418:	00 00 00 09 	l.j 343c <get_text_gray_row+0x54>
    341c:	84 43 00 18 	l.lwz r2,0x18(r3)
    3420:	a8 94 00 00 	l.ori r4,r20,0x0
    3424:	07 ff ff 7f 	l.jal 3220 <read_pbm_integer>
    3428:	9c 42 ff ff 	l.addi r2,r2,0xffffffff
    342c:	e1 72 58 00 	l.add r11,r18,r11
    3430:	8d 6b 00 00 	l.lbz r11,0x0(r11)
    3434:	d8 0e 58 00 	l.sb 0x0(r14),r11
    3438:	9d ce 00 01 	l.addi r14,r14,0x1
    343c:	bc 22 00 00 	l.sfnei r2,0x0
    3440:	13 ff ff f8 	l.bf 3420 <get_text_gray_row+0x38>
    3444:	a8 70 00 00 	l.ori r3,r16,0x0
    3448:	9c 21 00 18 	l.addi r1,r1,0x18
    344c:	9d 60 00 01 	l.addi r11,r0,0x1
    3450:	85 21 ff fc 	l.lwz r9,0xfffffffc(r1)
    3454:	84 41 ff e8 	l.lwz r2,0xffffffe8(r1)
    3458:	85 c1 ff ec 	l.lwz r14,0xffffffec(r1)
    345c:	86 01 ff f0 	l.lwz r16,0xfffffff0(r1)
    3460:	86 41 ff f4 	l.lwz r18,0xfffffff4(r1)
    3464:	44 00 48 00 	l.jr r9
    3468:	86 81 ff f8 	l.lwz r20,0xfffffff8(r1)

0000346c <start_input_ppm>:
    346c:	d7 e1 77 e8 	l.sw 0xffffffe8(r1),r14
    3470:	a9 c4 00 00 	l.ori r14,r4,0x0
    3474:	84 84 00 0c 	l.lwz r4,0xc(r4)
    3478:	d7 e1 17 e4 	l.sw 0xffffffe4(r1),r2
    347c:	a8 43 00 00 	l.ori r2,r3,0x0
    3480:	84 64 00 04 	l.lwz r3,0x4(r4)
    3484:	d7 e1 4f fc 	l.sw 0xfffffffc(r1),r9
    3488:	9c 63 ff ff 	l.addi r3,r3,0xffffffff
    348c:	d7 e1 87 ec 	l.sw 0xffffffec(r1),r16
    3490:	d7 e1 97 f0 	l.sw 0xfffffff0(r1),r18
    3494:	d7 e1 a7 f4 	l.sw 0xfffffff4(r1),r20
    3498:	d7 e1 b7 f8 	l.sw 0xfffffff8(r1),r22
    349c:	d4 04 18 04 	l.sw 0x4(r4),r3
    34a0:	bd 63 00 00 	l.sfgesi r3,0x0
    34a4:	10 00 00 0b 	l.bf 34d0 <start_input_ppm+0x64>
    34a8:	9c 21 ff e4 	l.addi r1,r1,0xffffffe4
    34ac:	18 60 00 02 	l.movhi r3,0x2
    34b0:	a8 63 f7 f4 	l.ori r3,r3,0xf7f4
    34b4:	04 00 56 13 	l.jal 18d00 <__srget_r>
    34b8:	84 63 00 00 	l.lwz r3,0x0(r3)
    34bc:	ad 6b 00 50 	l.xori r11,r11,0x50
    34c0:	e0 60 58 02 	l.sub r3,r0,r11
    34c4:	e1 63 58 04 	l.or r11,r3,r11
    34c8:	00 00 00 09 	l.j 34ec <start_input_ppm+0x80>
    34cc:	b9 6b 00 5f 	l.srli r11,r11,0x1f
    34d0:	84 64 00 00 	l.lwz r3,0x0(r4)
    34d4:	8d 63 00 00 	l.lbz r11,0x0(r3)
    34d8:	ad 6b 00 50 	l.xori r11,r11,0x50
    34dc:	9c 63 00 01 	l.addi r3,r3,0x1
    34e0:	e1 60 58 02 	l.sub r11,r0,r11
    34e4:	d4 04 18 00 	l.sw 0x0(r4),r3
    34e8:	b9 6b 00 5f 	l.srli r11,r11,0x1f
    34ec:	bc 0b 00 00 	l.sfeqi r11,0x0
    34f0:	10 00 00 07 	l.bf 350c <start_input_ppm+0xa0>
    34f4:	9c 80 04 03 	l.addi r4,r0,0x403
    34f8:	84 62 00 00 	l.lwz r3,0x0(r2)
    34fc:	d4 03 20 14 	l.sw 0x14(r3),r4
    3500:	84 83 00 00 	l.lwz r4,0x0(r3)
    3504:	48 00 20 00 	l.jalr r4
    3508:	a8 62 00 00 	l.ori r3,r2,0x0
    350c:	84 8e 00 0c 	l.lwz r4,0xc(r14)
    3510:	84 64 00 04 	l.lwz r3,0x4(r4)
    3514:	9c 63 ff ff 	l.addi r3,r3,0xffffffff
    3518:	bd 63 00 00 	l.sfgesi r3,0x0
    351c:	10 00 00 08 	l.bf 353c <start_input_ppm+0xd0>
    3520:	d4 04 18 04 	l.sw 0x4(r4),r3
    3524:	18 60 00 02 	l.movhi r3,0x2
    3528:	a8 63 f7 f4 	l.ori r3,r3,0xf7f4
    352c:	04 00 55 f5 	l.jal 18d00 <__srget_r>
    3530:	84 63 00 00 	l.lwz r3,0x0(r3)
    3534:	00 00 00 06 	l.j 354c <start_input_ppm+0xe0>
    3538:	aa cb 00 00 	l.ori r22,r11,0x0
    353c:	84 64 00 00 	l.lwz r3,0x0(r4)
    3540:	8e c3 00 00 	l.lbz r22,0x0(r3)
    3544:	9c 63 00 01 	l.addi r3,r3,0x1
    3548:	d4 04 18 00 	l.sw 0x0(r4),r3
    354c:	a8 62 00 00 	l.ori r3,r2,0x0
    3550:	07 ff ff 34 	l.jal 3220 <read_pbm_integer>
    3554:	84 8e 00 0c 	l.lwz r4,0xc(r14)
    3558:	a8 62 00 00 	l.ori r3,r2,0x0
    355c:	84 8e 00 0c 	l.lwz r4,0xc(r14)
    3560:	07 ff ff 30 	l.jal 3220 <read_pbm_integer>
    3564:	aa 4b 00 00 	l.ori r18,r11,0x0
    3568:	a8 62 00 00 	l.ori r3,r2,0x0
    356c:	84 8e 00 0c 	l.lwz r4,0xc(r14)
    3570:	07 ff ff 2c 	l.jal 3220 <read_pbm_integer>
    3574:	aa 8b 00 00 	l.ori r20,r11,0x0
    3578:	e0 60 a0 02 	l.sub r3,r0,r20
    357c:	e0 63 a0 04 	l.or r3,r3,r20
    3580:	bd 63 00 00 	l.sfgesi r3,0x0
    3584:	10 00 00 09 	l.bf 35a8 <start_input_ppm+0x13c>
    3588:	aa 0b 00 00 	l.ori r16,r11,0x0
    358c:	e0 60 90 02 	l.sub r3,r0,r18
    3590:	e0 63 90 04 	l.or r3,r3,r18
    3594:	bd 63 00 00 	l.sfgesi r3,0x0
    3598:	10 00 00 04 	l.bf 35a8 <start_input_ppm+0x13c>
    359c:	bc 2b 00 00 	l.sfnei r11,0x0
    35a0:	10 00 00 08 	l.bf 35c0 <start_input_ppm+0x154>
    35a4:	15 00 00 00 	l.nop 0x0
    35a8:	84 62 00 00 	l.lwz r3,0x0(r2)
    35ac:	9c 80 04 03 	l.addi r4,r0,0x403
    35b0:	d4 03 20 14 	l.sw 0x14(r3),r4
    35b4:	84 83 00 00 	l.lwz r4,0x0(r3)
    35b8:	48 00 20 00 	l.jalr r4
    35bc:	a8 62 00 00 	l.ori r3,r2,0x0
    35c0:	9c 60 00 08 	l.addi r3,r0,0x8
    35c4:	d4 02 90 18 	l.sw 0x18(r2),r18
    35c8:	d4 02 18 30 	l.sw 0x30(r2),r3
    35cc:	bc 16 00 33 	l.sfeqi r22,0x33
    35d0:	10 00 00 1e 	l.bf 3648 <start_input_ppm+0x1dc>
    35d4:	d4 02 a0 1c 	l.sw 0x1c(r2),r20
    35d8:	bd 56 00 33 	l.sfgtsi r22,0x33
    35dc:	10 00 00 07 	l.bf 35f8 <start_input_ppm+0x18c>
    35e0:	bc 16 00 35 	l.sfeqi r22,0x35
    35e4:	bc 16 00 32 	l.sfeqi r22,0x32
    35e8:	0c 00 00 6c 	l.bnf 3798 <start_input_ppm+0x32c>
    35ec:	9c 80 00 01 	l.addi r4,r0,0x1
    35f0:	00 00 00 08 	l.j 3610 <start_input_ppm+0x1a4>
    35f4:	84 62 00 00 	l.lwz r3,0x0(r2)
    35f8:	10 00 00 28 	l.bf 3698 <start_input_ppm+0x22c>
    35fc:	bc 16 00 36 	l.sfeqi r22,0x36
    3600:	0c 00 00 66 	l.bnf 3798 <start_input_ppm+0x32c>
    3604:	15 00 00 00 	l.nop 0x0
    3608:	00 00 00 43 	l.j 3714 <start_input_ppm+0x2a8>
    360c:	9c 60 00 03 	l.addi r3,r0,0x3
    3610:	d4 02 20 20 	l.sw 0x20(r2),r4
    3614:	d4 02 20 24 	l.sw 0x24(r2),r4
    3618:	d4 03 90 18 	l.sw 0x18(r3),r18
    361c:	9c a0 04 05 	l.addi r5,r0,0x405
    3620:	d4 03 28 14 	l.sw 0x14(r3),r5
    3624:	84 62 00 00 	l.lwz r3,0x0(r2)
    3628:	d4 03 a0 1c 	l.sw 0x1c(r3),r20
    362c:	84 62 00 00 	l.lwz r3,0x0(r2)
    3630:	84 a3 00 04 	l.lwz r5,0x4(r3)
    3634:	48 00 28 00 	l.jalr r5
    3638:	a8 62 00 00 	l.ori r3,r2,0x0
    363c:	18 60 00 00 	l.movhi r3,0x0
    3640:	00 00 00 13 	l.j 368c <start_input_ppm+0x220>
    3644:	a8 63 33 e8 	l.ori r3,r3,0x33e8
    3648:	9c 60 00 03 	l.addi r3,r0,0x3
    364c:	9c 80 04 07 	l.addi r4,r0,0x407
    3650:	d4 02 18 20 	l.sw 0x20(r2),r3
    3654:	9c 60 00 02 	l.addi r3,r0,0x2
    3658:	d4 02 18 24 	l.sw 0x24(r2),r3
    365c:	84 62 00 00 	l.lwz r3,0x0(r2)
    3660:	d4 03 90 18 	l.sw 0x18(r3),r18
    3664:	d4 03 20 14 	l.sw 0x14(r3),r4
    3668:	84 62 00 00 	l.lwz r3,0x0(r2)
    366c:	9c 80 00 01 	l.addi r4,r0,0x1
    3670:	d4 03 a0 1c 	l.sw 0x1c(r3),r20
    3674:	84 62 00 00 	l.lwz r3,0x0(r2)
    3678:	84 a3 00 04 	l.lwz r5,0x4(r3)
    367c:	48 00 28 00 	l.jalr r5
    3680:	a8 62 00 00 	l.ori r3,r2,0x0
    3684:	18 60 00 00 	l.movhi r3,0x0
    3688:	a8 63 33 34 	l.ori r3,r3,0x3334
    368c:	d4 0e 18 04 	l.sw 0x4(r14),r3
    3690:	00 00 00 58 	l.j 37f0 <start_input_ppm+0x384>
    3694:	9e 80 00 01 	l.addi r20,r0,0x1
    3698:	9e c0 00 01 	l.addi r22,r0,0x1
    369c:	84 62 00 00 	l.lwz r3,0x0(r2)
    36a0:	d4 02 b0 20 	l.sw 0x20(r2),r22
    36a4:	d4 02 b0 24 	l.sw 0x24(r2),r22
    36a8:	d4 03 90 18 	l.sw 0x18(r3),r18
    36ac:	9c 80 04 04 	l.addi r4,r0,0x404
    36b0:	d4 03 20 14 	l.sw 0x14(r3),r4
    36b4:	84 62 00 00 	l.lwz r3,0x0(r2)
    36b8:	a8 96 00 00 	l.ori r4,r22,0x0
    36bc:	d4 03 a0 1c 	l.sw 0x1c(r3),r20
    36c0:	84 62 00 00 	l.lwz r3,0x0(r2)
    36c4:	84 a3 00 04 	l.lwz r5,0x4(r3)
    36c8:	48 00 28 00 	l.jalr r5
    36cc:	a8 62 00 00 	l.ori r3,r2,0x0
    36d0:	bc b0 00 ff 	l.sfleui r16,0xff
    36d4:	10 00 00 05 	l.bf 36e8 <start_input_ppm+0x27c>
    36d8:	bc 30 00 ff 	l.sfnei r16,0xff
    36dc:	18 60 00 00 	l.movhi r3,0x0
    36e0:	00 00 00 0a 	l.j 3708 <start_input_ppm+0x29c>
    36e4:	a8 63 3b a4 	l.ori r3,r3,0x3ba4
    36e8:	10 00 00 07 	l.bf 3704 <start_input_ppm+0x298>
    36ec:	18 60 00 00 	l.movhi r3,0x0
    36f0:	18 60 00 00 	l.movhi r3,0x0
    36f4:	9e 80 00 00 	l.addi r20,r0,0x0
    36f8:	a8 63 3b 38 	l.ori r3,r3,0x3b38
    36fc:	00 00 00 60 	l.j 387c <start_input_ppm+0x410>
    3700:	d4 0e 18 04 	l.sw 0x4(r14),r3
    3704:	a8 63 3a 80 	l.ori r3,r3,0x3a80
    3708:	d4 0e 18 04 	l.sw 0x4(r14),r3
    370c:	00 00 00 21 	l.j 3790 <start_input_ppm+0x324>
    3710:	aa 96 00 00 	l.ori r20,r22,0x0
    3714:	9c 80 04 06 	l.addi r4,r0,0x406
    3718:	d4 02 18 20 	l.sw 0x20(r2),r3
    371c:	9c 60 00 02 	l.addi r3,r0,0x2
    3720:	d4 02 18 24 	l.sw 0x24(r2),r3
    3724:	84 62 00 00 	l.lwz r3,0x0(r2)
    3728:	d4 03 90 18 	l.sw 0x18(r3),r18
    372c:	d4 03 20 14 	l.sw 0x14(r3),r4
    3730:	84 62 00 00 	l.lwz r3,0x0(r2)
    3734:	9c 80 00 01 	l.addi r4,r0,0x1
    3738:	d4 03 a0 1c 	l.sw 0x1c(r3),r20
    373c:	84 62 00 00 	l.lwz r3,0x0(r2)
    3740:	84 a3 00 04 	l.lwz r5,0x4(r3)
    3744:	48 00 28 00 	l.jalr r5
    3748:	a8 62 00 00 	l.ori r3,r2,0x0
    374c:	bc b0 00 ff 	l.sfleui r16,0xff
    3750:	10 00 00 05 	l.bf 3764 <start_input_ppm+0x2f8>
    3754:	bc 30 00 ff 	l.sfnei r16,0xff
    3758:	18 60 00 00 	l.movhi r3,0x0
    375c:	00 00 00 0b 	l.j 3788 <start_input_ppm+0x31c>
    3760:	a8 63 39 8c 	l.ori r3,r3,0x398c
    3764:	10 00 00 08 	l.bf 3784 <start_input_ppm+0x318>
    3768:	18 60 00 00 	l.movhi r3,0x0
    376c:	18 60 00 00 	l.movhi r3,0x0
    3770:	9e 80 00 00 	l.addi r20,r0,0x0
    3774:	a8 63 3b 38 	l.ori r3,r3,0x3b38
    3778:	9e c0 00 01 	l.addi r22,r0,0x1
    377c:	00 00 00 40 	l.j 387c <start_input_ppm+0x410>
    3780:	d4 0e 18 04 	l.sw 0x4(r14),r3
    3784:	a8 63 38 bc 	l.ori r3,r3,0x38bc
    3788:	d4 0e 18 04 	l.sw 0x4(r14),r3
    378c:	9e 80 00 01 	l.addi r20,r0,0x1
    3790:	00 00 00 3b 	l.j 387c <start_input_ppm+0x410>
    3794:	9e c0 00 00 	l.addi r22,r0,0x0
    3798:	84 62 00 00 	l.lwz r3,0x0(r2)
    379c:	9c 80 04 03 	l.addi r4,r0,0x403
    37a0:	d4 03 20 14 	l.sw 0x14(r3),r4
    37a4:	84 83 00 00 	l.lwz r4,0x0(r3)
    37a8:	48 00 20 00 	l.jalr r4
    37ac:	a8 62 00 00 	l.ori r3,r2,0x0
    37b0:	03 ff ff f8 	l.j 3790 <start_input_ppm+0x324>
    37b4:	9e 80 00 01 	l.addi r20,r0,0x1
    37b8:	e0 a5 1b 06 	l.mul r5,r5,r3
    37bc:	84 62 00 04 	l.lwz r3,0x4(r2)
    37c0:	d4 0e 28 20 	l.sw 0x20(r14),r5
    37c4:	85 63 00 00 	l.lwz r11,0x0(r3)
    37c8:	9c 80 00 01 	l.addi r4,r0,0x1
    37cc:	48 00 58 00 	l.jalr r11
    37d0:	a8 62 00 00 	l.ori r3,r2,0x0
    37d4:	bc 16 00 00 	l.sfeqi r22,0x0
    37d8:	10 00 00 06 	l.bf 37f0 <start_input_ppm+0x384>
    37dc:	d4 0e 58 18 	l.sw 0x18(r14),r11
    37e0:	9c 6e 00 1c 	l.addi r3,r14,0x1c
    37e4:	d4 0e 58 1c 	l.sw 0x1c(r14),r11
    37e8:	00 00 00 0b 	l.j 3814 <start_input_ppm+0x3a8>
    37ec:	d4 0e 18 10 	l.sw 0x10(r14),r3
    37f0:	84 a2 00 20 	l.lwz r5,0x20(r2)
    37f4:	84 62 00 04 	l.lwz r3,0x4(r2)
    37f8:	e0 b2 2b 06 	l.mul r5,r18,r5
    37fc:	9c 80 00 01 	l.addi r4,r0,0x1
    3800:	85 63 00 08 	l.lwz r11,0x8(r3)
    3804:	a8 c4 00 00 	l.ori r6,r4,0x0
    3808:	48 00 58 00 	l.jalr r11
    380c:	a8 62 00 00 	l.ori r3,r2,0x0
    3810:	d4 0e 58 10 	l.sw 0x10(r14),r11
    3814:	9c 60 00 01 	l.addi r3,r0,0x1
    3818:	bc 14 00 00 	l.sfeqi r20,0x0
    381c:	10 00 00 1f 	l.bf 3898 <start_input_ppm+0x42c>
    3820:	d4 0e 18 14 	l.sw 0x14(r14),r3
    3824:	84 62 00 04 	l.lwz r3,0x4(r2)
    3828:	9c 80 00 01 	l.addi r4,r0,0x1
    382c:	85 63 00 00 	l.lwz r11,0x0(r3)
    3830:	e0 b0 20 00 	l.add r5,r16,r4
    3834:	a8 62 00 00 	l.ori r3,r2,0x0
    3838:	48 00 58 00 	l.jalr r11
    383c:	ba 50 00 41 	l.srli r18,r16,0x1
    3840:	9c 40 00 00 	l.addi r2,r0,0x0
    3844:	00 00 00 09 	l.j 3868 <start_input_ppm+0x3fc>
    3848:	d4 0e 58 24 	l.sw 0x24(r14),r11
    384c:	86 8e 00 24 	l.lwz r20,0x24(r14)
    3850:	e2 94 10 00 	l.add r20,r20,r2
    3854:	a8 90 00 00 	l.ori r4,r16,0x0
    3858:	04 00 38 5b 	l.jal 119c4 <__udivsi3>
    385c:	9c 42 00 01 	l.addi r2,r2,0x1
    3860:	9e 52 00 ff 	l.addi r18,r18,0xff
    3864:	d8 14 58 00 	l.sb 0x0(r20),r11
    3868:	e5 a2 80 00 	l.sfles r2,r16
    386c:	13 ff ff f8 	l.bf 384c <start_input_ppm+0x3e0>
    3870:	a8 72 00 00 	l.ori r3,r18,0x0
    3874:	00 00 00 0a 	l.j 389c <start_input_ppm+0x430>
    3878:	9c 21 00 1c 	l.addi r1,r1,0x1c
    387c:	84 a2 00 20 	l.lwz r5,0x20(r2)
    3880:	9c 60 00 01 	l.addi r3,r0,0x1
    3884:	bc b0 00 ff 	l.sfleui r16,0xff
    3888:	13 ff ff cc 	l.bf 37b8 <start_input_ppm+0x34c>
    388c:	e0 b2 2b 06 	l.mul r5,r18,r5
    3890:	03 ff ff ca 	l.j 37b8 <start_input_ppm+0x34c>
    3894:	9c 60 00 02 	l.addi r3,r0,0x2
    3898:	9c 21 00 1c 	l.addi r1,r1,0x1c
    389c:	85 21 ff fc 	l.lwz r9,0xfffffffc(r1)
    38a0:	84 41 ff e4 	l.lwz r2,0xffffffe4(r1)
    38a4:	85 c1 ff e8 	l.lwz r14,0xffffffe8(r1)
    38a8:	86 01 ff ec 	l.lwz r16,0xffffffec(r1)
    38ac:	86 41 ff f0 	l.lwz r18,0xfffffff0(r1)
    38b0:	86 81 ff f4 	l.lwz r20,0xfffffff4(r1)
    38b4:	44 00 48 00 	l.jr r9
    38b8:	86 c1 ff f8 	l.lwz r22,0xfffffff8(r1)

000038bc <get_scaled_rgb_row>:
    38bc:	d7 e1 17 f0 	l.sw 0xfffffff0(r1),r2
    38c0:	a8 44 00 00 	l.ori r2,r4,0x0
    38c4:	d7 e1 77 f4 	l.sw 0xfffffff4(r1),r14
    38c8:	d7 e1 87 f8 	l.sw 0xfffffff8(r1),r16
    38cc:	d7 e1 4f fc 	l.sw 0xfffffffc(r1),r9
    38d0:	86 04 00 24 	l.lwz r16,0x24(r4)
    38d4:	9c 21 ff f0 	l.addi r1,r1,0xfffffff0
    38d8:	a9 c3 00 00 	l.ori r14,r3,0x0
    38dc:	84 a2 00 20 	l.lwz r5,0x20(r2)
    38e0:	84 64 00 18 	l.lwz r3,0x18(r4)
    38e4:	84 c2 00 0c 	l.lwz r6,0xc(r2)
    38e8:	04 00 47 79 	l.jal 156cc <fread>
    38ec:	9c 80 00 01 	l.addi r4,r0,0x1
    38f0:	84 62 00 20 	l.lwz r3,0x20(r2)
    38f4:	e4 0b 18 00 	l.sfeq r11,r3
    38f8:	10 00 00 08 	l.bf 3918 <get_scaled_rgb_row+0x5c>
    38fc:	15 00 00 00 	l.nop 0x0
    3900:	84 6e 00 00 	l.lwz r3,0x0(r14)
    3904:	9c 80 00 2a 	l.addi r4,r0,0x2a
    3908:	d4 03 20 14 	l.sw 0x14(r3),r4
    390c:	84 83 00 00 	l.lwz r4,0x0(r3)
    3910:	48 00 20 00 	l.jalr r4
    3914:	a8 6e 00 00 	l.ori r3,r14,0x0
    3918:	84 62 00 10 	l.lwz r3,0x10(r2)
    391c:	84 42 00 18 	l.lwz r2,0x18(r2)
    3920:	84 83 00 00 	l.lwz r4,0x0(r3)
    3924:	00 00 00 11 	l.j 3968 <get_scaled_rgb_row+0xac>
    3928:	84 6e 00 18 	l.lwz r3,0x18(r14)
    392c:	8c a2 00 00 	l.lbz r5,0x0(r2)
    3930:	e0 b0 28 00 	l.add r5,r16,r5
    3934:	9c 63 ff ff 	l.addi r3,r3,0xffffffff
    3938:	8c a5 00 00 	l.lbz r5,0x0(r5)
    393c:	d8 04 28 00 	l.sb 0x0(r4),r5
    3940:	8c a2 00 01 	l.lbz r5,0x1(r2)
    3944:	e0 b0 28 00 	l.add r5,r16,r5
    3948:	8c a5 00 00 	l.lbz r5,0x0(r5)
    394c:	d8 04 28 01 	l.sb 0x1(r4),r5
    3950:	8c a2 00 02 	l.lbz r5,0x2(r2)
    3954:	e0 b0 28 00 	l.add r5,r16,r5
    3958:	9c 42 00 03 	l.addi r2,r2,0x3
    395c:	8c a5 00 00 	l.lbz r5,0x0(r5)
    3960:	d8 04 28 02 	l.sb 0x2(r4),r5
    3964:	9c 84 00 03 	l.addi r4,r4,0x3
    3968:	bc 23 00 00 	l.sfnei r3,0x0
    396c:	13 ff ff f0 	l.bf 392c <get_scaled_rgb_row+0x70>
    3970:	9d 60 00 01 	l.addi r11,r0,0x1
    3974:	9c 21 00 10 	l.addi r1,r1,0x10
    3978:	85 21 ff fc 	l.lwz r9,0xfffffffc(r1)
    397c:	84 41 ff f0 	l.lwz r2,0xfffffff0(r1)
    3980:	85 c1 ff f4 	l.lwz r14,0xfffffff4(r1)
    3984:	44 00 48 00 	l.jr r9
    3988:	86 01 ff f8 	l.lwz r16,0xfffffff8(r1)

0000398c <get_word_rgb_row>:
    398c:	d7 e1 17 f0 	l.sw 0xfffffff0(r1),r2
    3990:	a8 44 00 00 	l.ori r2,r4,0x0
    3994:	d7 e1 77 f4 	l.sw 0xfffffff4(r1),r14
    3998:	d7 e1 87 f8 	l.sw 0xfffffff8(r1),r16
    399c:	d7 e1 4f fc 	l.sw 0xfffffffc(r1),r9
    39a0:	86 04 00 24 	l.lwz r16,0x24(r4)
    39a4:	9c 21 ff f0 	l.addi r1,r1,0xfffffff0
    39a8:	a9 c3 00 00 	l.ori r14,r3,0x0
    39ac:	84 a2 00 20 	l.lwz r5,0x20(r2)
    39b0:	84 64 00 18 	l.lwz r3,0x18(r4)
    39b4:	84 c2 00 0c 	l.lwz r6,0xc(r2)
    39b8:	04 00 47 45 	l.jal 156cc <fread>
    39bc:	9c 80 00 01 	l.addi r4,r0,0x1
    39c0:	84 62 00 20 	l.lwz r3,0x20(r2)
    39c4:	e4 0b 18 00 	l.sfeq r11,r3
    39c8:	10 00 00 08 	l.bf 39e8 <get_word_rgb_row+0x5c>
    39cc:	15 00 00 00 	l.nop 0x0
    39d0:	84 6e 00 00 	l.lwz r3,0x0(r14)
    39d4:	9c 80 00 2a 	l.addi r4,r0,0x2a
    39d8:	d4 03 20 14 	l.sw 0x14(r3),r4
    39dc:	84 83 00 00 	l.lwz r4,0x0(r3)
    39e0:	48 00 20 00 	l.jalr r4
    39e4:	a8 6e 00 00 	l.ori r3,r14,0x0
    39e8:	84 62 00 10 	l.lwz r3,0x10(r2)
    39ec:	84 42 00 18 	l.lwz r2,0x18(r2)
    39f0:	84 83 00 00 	l.lwz r4,0x0(r3)
    39f4:	00 00 00 1a 	l.j 3a5c <get_word_rgb_row+0xd0>
    39f8:	84 6e 00 18 	l.lwz r3,0x18(r14)
    39fc:	8c a2 00 01 	l.lbz r5,0x1(r2)
    3a00:	8c c2 00 00 	l.lbz r6,0x0(r2)
    3a04:	b8 a5 00 08 	l.slli r5,r5,0x8
    3a08:	9c 63 ff ff 	l.addi r3,r3,0xffffffff
    3a0c:	e0 a5 30 04 	l.or r5,r5,r6
    3a10:	e0 b0 28 00 	l.add r5,r16,r5
    3a14:	8c a5 00 00 	l.lbz r5,0x0(r5)
    3a18:	d8 04 28 00 	l.sb 0x0(r4),r5
    3a1c:	8c a2 00 03 	l.lbz r5,0x3(r2)
    3a20:	8c c2 00 02 	l.lbz r6,0x2(r2)
    3a24:	b8 a5 00 08 	l.slli r5,r5,0x8
    3a28:	e0 a5 30 04 	l.or r5,r5,r6
    3a2c:	e0 b0 28 00 	l.add r5,r16,r5
    3a30:	8c a5 00 00 	l.lbz r5,0x0(r5)
    3a34:	d8 04 28 01 	l.sb 0x1(r4),r5
    3a38:	8c a2 00 05 	l.lbz r5,0x5(r2)
    3a3c:	8c c2 00 04 	l.lbz r6,0x4(r2)
    3a40:	b8 a5 00 08 	l.slli r5,r5,0x8
    3a44:	9c 42 00 06 	l.addi r2,r2,0x6
    3a48:	e0 a5 30 04 	l.or r5,r5,r6
    3a4c:	e0 b0 28 00 	l.add r5,r16,r5
    3a50:	8c a5 00 00 	l.lbz r5,0x0(r5)
    3a54:	d8 04 28 02 	l.sb 0x2(r4),r5
    3a58:	9c 84 00 03 	l.addi r4,r4,0x3
    3a5c:	bc 23 00 00 	l.sfnei r3,0x0
    3a60:	13 ff ff e7 	l.bf 39fc <get_word_rgb_row+0x70>
    3a64:	9d 60 00 01 	l.addi r11,r0,0x1
    3a68:	9c 21 00 10 	l.addi r1,r1,0x10
    3a6c:	85 21 ff fc 	l.lwz r9,0xfffffffc(r1)
    3a70:	84 41 ff f0 	l.lwz r2,0xfffffff0(r1)
    3a74:	85 c1 ff f4 	l.lwz r14,0xfffffff4(r1)
    3a78:	44 00 48 00 	l.jr r9
    3a7c:	86 01 ff f8 	l.lwz r16,0xfffffff8(r1)

00003a80 <get_scaled_gray_row>:
    3a80:	d7 e1 17 f0 	l.sw 0xfffffff0(r1),r2
    3a84:	a8 44 00 00 	l.ori r2,r4,0x0
    3a88:	d7 e1 77 f4 	l.sw 0xfffffff4(r1),r14
    3a8c:	d7 e1 87 f8 	l.sw 0xfffffff8(r1),r16
    3a90:	d7 e1 4f fc 	l.sw 0xfffffffc(r1),r9
    3a94:	86 04 00 24 	l.lwz r16,0x24(r4)
    3a98:	9c 21 ff f0 	l.addi r1,r1,0xfffffff0
    3a9c:	a9 c3 00 00 	l.ori r14,r3,0x0
    3aa0:	84 a2 00 20 	l.lwz r5,0x20(r2)
    3aa4:	84 64 00 18 	l.lwz r3,0x18(r4)
    3aa8:	84 c2 00 0c 	l.lwz r6,0xc(r2)
    3aac:	04 00 47 08 	l.jal 156cc <fread>
    3ab0:	9c 80 00 01 	l.addi r4,r0,0x1
    3ab4:	84 62 00 20 	l.lwz r3,0x20(r2)
    3ab8:	e4 0b 18 00 	l.sfeq r11,r3
    3abc:	10 00 00 08 	l.bf 3adc <get_scaled_gray_row+0x5c>
    3ac0:	15 00 00 00 	l.nop 0x0
    3ac4:	84 6e 00 00 	l.lwz r3,0x0(r14)
    3ac8:	9c 80 00 2a 	l.addi r4,r0,0x2a
    3acc:	d4 03 20 14 	l.sw 0x14(r3),r4
    3ad0:	84 83 00 00 	l.lwz r4,0x0(r3)
    3ad4:	48 00 20 00 	l.jalr r4
    3ad8:	a8 6e 00 00 	l.ori r3,r14,0x0
    3adc:	84 62 00 10 	l.lwz r3,0x10(r2)
    3ae0:	84 82 00 18 	l.lwz r4,0x18(r2)
    3ae4:	84 a3 00 00 	l.lwz r5,0x0(r3)
    3ae8:	9c 40 00 00 	l.addi r2,r0,0x0
    3aec:	00 00 00 09 	l.j 3b10 <get_scaled_gray_row+0x90>
    3af0:	84 6e 00 18 	l.lwz r3,0x18(r14)
    3af4:	e0 c5 10 00 	l.add r6,r5,r2
    3af8:	8c e7 00 00 	l.lbz r7,0x0(r7)
    3afc:	e0 f0 38 00 	l.add r7,r16,r7
    3b00:	9c 63 ff ff 	l.addi r3,r3,0xffffffff
    3b04:	8c e7 00 00 	l.lbz r7,0x0(r7)
    3b08:	9c 42 00 01 	l.addi r2,r2,0x1
    3b0c:	d8 06 38 00 	l.sb 0x0(r6),r7
    3b10:	bc 23 00 00 	l.sfnei r3,0x0
    3b14:	13 ff ff f8 	l.bf 3af4 <get_scaled_gray_row+0x74>
    3b18:	e0 e4 10 00 	l.add r7,r4,r2
    3b1c:	9c 21 00 10 	l.addi r1,r1,0x10
    3b20:	9d 60 00 01 	l.addi r11,r0,0x1
    3b24:	85 21 ff fc 	l.lwz r9,0xfffffffc(r1)
    3b28:	84 41 ff f0 	l.lwz r2,0xfffffff0(r1)
    3b2c:	85 c1 ff f4 	l.lwz r14,0xfffffff4(r1)
    3b30:	44 00 48 00 	l.jr r9
    3b34:	86 01 ff f8 	l.lwz r16,0xfffffff8(r1)

00003b38 <get_raw_row>:
    3b38:	d7 e1 17 f4 	l.sw 0xfffffff4(r1),r2
    3b3c:	a8 44 00 00 	l.ori r2,r4,0x0
    3b40:	d7 e1 77 f8 	l.sw 0xfffffff8(r1),r14
    3b44:	d7 e1 4f fc 	l.sw 0xfffffffc(r1),r9
    3b48:	84 a2 00 20 	l.lwz r5,0x20(r2)
    3b4c:	84 c2 00 0c 	l.lwz r6,0xc(r2)
    3b50:	9c 21 ff f4 	l.addi r1,r1,0xfffffff4
    3b54:	a9 c3 00 00 	l.ori r14,r3,0x0
    3b58:	84 64 00 18 	l.lwz r3,0x18(r4)
    3b5c:	04 00 46 dc 	l.jal 156cc <fread>
    3b60:	9c 80 00 01 	l.addi r4,r0,0x1
    3b64:	84 42 00 20 	l.lwz r2,0x20(r2)
    3b68:	e4 0b 10 00 	l.sfeq r11,r2
    3b6c:	10 00 00 08 	l.bf 3b8c <get_raw_row+0x54>
    3b70:	15 00 00 00 	l.nop 0x0
    3b74:	84 4e 00 00 	l.lwz r2,0x0(r14)
    3b78:	9c 60 00 2a 	l.addi r3,r0,0x2a
    3b7c:	d4 02 18 14 	l.sw 0x14(r2),r3
    3b80:	84 42 00 00 	l.lwz r2,0x0(r2)
    3b84:	48 00 10 00 	l.jalr r2
    3b88:	a8 6e 00 00 	l.ori r3,r14,0x0
    3b8c:	9c 21 00 0c 	l.addi r1,r1,0xc
    3b90:	9d 60 00 01 	l.addi r11,r0,0x1
    3b94:	85 21 ff fc 	l.lwz r9,0xfffffffc(r1)
    3b98:	84 41 ff f4 	l.lwz r2,0xfffffff4(r1)
    3b9c:	44 00 48 00 	l.jr r9
    3ba0:	85 c1 ff f8 	l.lwz r14,0xfffffff8(r1)

00003ba4 <get_word_gray_row>:
    3ba4:	d7 e1 17 f0 	l.sw 0xfffffff0(r1),r2
    3ba8:	a8 44 00 00 	l.ori r2,r4,0x0
    3bac:	d7 e1 77 f4 	l.sw 0xfffffff4(r1),r14
    3bb0:	d7 e1 87 f8 	l.sw 0xfffffff8(r1),r16
    3bb4:	d7 e1 4f fc 	l.sw 0xfffffffc(r1),r9
    3bb8:	86 04 00 24 	l.lwz r16,0x24(r4)
    3bbc:	9c 21 ff f0 	l.addi r1,r1,0xfffffff0
    3bc0:	a9 c3 00 00 	l.ori r14,r3,0x0
    3bc4:	84 a2 00 20 	l.lwz r5,0x20(r2)
    3bc8:	84 64 00 18 	l.lwz r3,0x18(r4)
    3bcc:	84 c2 00 0c 	l.lwz r6,0xc(r2)
    3bd0:	04 00 46 bf 	l.jal 156cc <fread>
    3bd4:	9c 80 00 01 	l.addi r4,r0,0x1
    3bd8:	84 62 00 20 	l.lwz r3,0x20(r2)
    3bdc:	e4 0b 18 00 	l.sfeq r11,r3
    3be0:	10 00 00 08 	l.bf 3c00 <get_word_gray_row+0x5c>
    3be4:	15 00 00 00 	l.nop 0x0
    3be8:	84 6e 00 00 	l.lwz r3,0x0(r14)
    3bec:	9c 80 00 2a 	l.addi r4,r0,0x2a
    3bf0:	d4 03 20 14 	l.sw 0x14(r3),r4
    3bf4:	84 83 00 00 	l.lwz r4,0x0(r3)
    3bf8:	48 00 20 00 	l.jalr r4
    3bfc:	a8 6e 00 00 	l.ori r3,r14,0x0
    3c00:	84 62 00 10 	l.lwz r3,0x10(r2)
    3c04:	84 42 00 18 	l.lwz r2,0x18(r2)
    3c08:	84 83 00 00 	l.lwz r4,0x0(r3)
    3c0c:	00 00 00 0c 	l.j 3c3c <get_word_gray_row+0x98>
    3c10:	84 6e 00 18 	l.lwz r3,0x18(r14)
    3c14:	8c a2 00 01 	l.lbz r5,0x1(r2)
    3c18:	8c c2 00 00 	l.lbz r6,0x0(r2)
    3c1c:	b8 a5 00 08 	l.slli r5,r5,0x8
    3c20:	9c 42 00 02 	l.addi r2,r2,0x2
    3c24:	9c 63 ff ff 	l.addi r3,r3,0xffffffff
    3c28:	e0 a5 30 04 	l.or r5,r5,r6
    3c2c:	e0 b0 28 00 	l.add r5,r16,r5
    3c30:	8c a5 00 00 	l.lbz r5,0x0(r5)
    3c34:	d8 04 28 00 	l.sb 0x0(r4),r5
    3c38:	9c 84 00 01 	l.addi r4,r4,0x1
    3c3c:	bc 23 00 00 	l.sfnei r3,0x0
    3c40:	13 ff ff f5 	l.bf 3c14 <get_word_gray_row+0x70>
    3c44:	9d 60 00 01 	l.addi r11,r0,0x1
    3c48:	9c 21 00 10 	l.addi r1,r1,0x10
    3c4c:	85 21 ff fc 	l.lwz r9,0xfffffffc(r1)
    3c50:	84 41 ff f0 	l.lwz r2,0xfffffff0(r1)
    3c54:	85 c1 ff f4 	l.lwz r14,0xfffffff4(r1)
    3c58:	44 00 48 00 	l.jr r9
    3c5c:	86 01 ff f8 	l.lwz r16,0xfffffff8(r1)

00003c60 <jinit_read_ppm>:
    3c60:	84 83 00 04 	l.lwz r4,0x4(r3)
    3c64:	d7 e1 4f fc 	l.sw 0xfffffffc(r1),r9
    3c68:	85 64 00 00 	l.lwz r11,0x0(r4)
    3c6c:	9c 21 ff fc 	l.addi r1,r1,0xfffffffc
    3c70:	9c 80 00 01 	l.addi r4,r0,0x1
    3c74:	48 00 58 00 	l.jalr r11
    3c78:	9c a0 00 28 	l.addi r5,r0,0x28
    3c7c:	18 80 00 00 	l.movhi r4,0x0
    3c80:	a8 84 34 6c 	l.ori r4,r4,0x346c
    3c84:	d4 0b 20 00 	l.sw 0x0(r11),r4
    3c88:	18 80 00 00 	l.movhi r4,0x0
    3c8c:	a8 84 31 38 	l.ori r4,r4,0x3138
    3c90:	d4 0b 20 08 	l.sw 0x8(r11),r4
    3c94:	9c 21 00 04 	l.addi r1,r1,0x4
    3c98:	85 21 ff fc 	l.lwz r9,0xfffffffc(r1)
    3c9c:	44 00 48 00 	l.jr r9
    3ca0:	15 00 00 00 	l.nop 0x0

00003ca4 <get_interlaced_row>:
    3ca4:	84 a4 01 70 	l.lwz r5,0x170(r4)
    3ca8:	d7 e1 17 f0 	l.sw 0xfffffff0(r1),r2
    3cac:	d7 e1 77 f4 	l.sw 0xfffffff4(r1),r14
    3cb0:	d7 e1 87 f8 	l.sw 0xfffffff8(r1),r16
    3cb4:	d7 e1 4f fc 	l.sw 0xfffffffc(r1),r9
    3cb8:	aa 03 00 00 	l.ori r16,r3,0x0
    3cbc:	a4 65 00 07 	l.andi r3,r5,0x7
    3cc0:	9c 21 ff f0 	l.addi r1,r1,0xfffffff0
    3cc4:	a8 44 00 00 	l.ori r2,r4,0x0
    3cc8:	bc 03 00 02 	l.sfeqi r3,0x2
    3ccc:	10 00 00 15 	l.bf 3d20 <get_interlaced_row+0x7c>
    3cd0:	85 c4 00 1c 	l.lwz r14,0x1c(r4)
    3cd4:	bd 43 00 02 	l.sfgtsi r3,0x2
    3cd8:	10 00 00 07 	l.bf 3cf4 <get_interlaced_row+0x50>
    3cdc:	bc 03 00 04 	l.sfeqi r3,0x4
    3ce0:	bc 03 00 00 	l.sfeqi r3,0x0
    3ce4:	10 00 00 0a 	l.bf 3d0c <get_interlaced_row+0x68>
    3ce8:	15 00 00 00 	l.nop 0x0
    3cec:	00 00 00 11 	l.j 3d30 <get_interlaced_row+0x8c>
    3cf0:	b8 a5 00 41 	l.srli r5,r5,0x1
    3cf4:	10 00 00 08 	l.bf 3d14 <get_interlaced_row+0x70>
    3cf8:	bc 03 00 06 	l.sfeqi r3,0x6
    3cfc:	0c 00 00 0c 	l.bnf 3d2c <get_interlaced_row+0x88>
    3d00:	15 00 00 00 	l.nop 0x0
    3d04:	00 00 00 08 	l.j 3d24 <get_interlaced_row+0x80>
    3d08:	b8 a5 00 42 	l.srli r5,r5,0x2
    3d0c:	00 00 00 0b 	l.j 3d38 <get_interlaced_row+0x94>
    3d10:	b8 a5 00 43 	l.srli r5,r5,0x3
    3d14:	b8 a5 00 43 	l.srli r5,r5,0x3
    3d18:	00 00 00 07 	l.j 3d34 <get_interlaced_row+0x90>
    3d1c:	84 64 01 74 	l.lwz r3,0x174(r4)
    3d20:	b8 a5 00 42 	l.srli r5,r5,0x2
    3d24:	00 00 00 04 	l.j 3d34 <get_interlaced_row+0x90>
    3d28:	84 62 01 78 	l.lwz r3,0x178(r2)
    3d2c:	b8 a5 00 41 	l.srli r5,r5,0x1
    3d30:	84 62 01 7c 	l.lwz r3,0x17c(r2)
    3d34:	e0 a5 18 00 	l.add r5,r5,r3
    3d38:	84 70 00 04 	l.lwz r3,0x4(r16)
    3d3c:	84 82 01 6c 	l.lwz r4,0x16c(r2)
    3d40:	85 63 00 1c 	l.lwz r11,0x1c(r3)
    3d44:	9c c0 00 01 	l.addi r6,r0,0x1
    3d48:	a8 70 00 00 	l.ori r3,r16,0x0
    3d4c:	48 00 58 00 	l.jalr r11
    3d50:	9c e0 00 00 	l.addi r7,r0,0x0
    3d54:	84 62 00 10 	l.lwz r3,0x10(r2)
    3d58:	84 ab 00 00 	l.lwz r5,0x0(r11)
    3d5c:	84 63 00 00 	l.lwz r3,0x0(r3)
    3d60:	00 00 00 12 	l.j 3da8 <get_interlaced_row+0x104>
    3d64:	84 90 00 18 	l.lwz r4,0x18(r16)
    3d68:	8c c5 00 00 	l.lbz r6,0x0(r5)
    3d6c:	84 ee 00 00 	l.lwz r7,0x0(r14)
    3d70:	9c a5 00 01 	l.addi r5,r5,0x1
    3d74:	e0 e7 30 00 	l.add r7,r7,r6
    3d78:	9c 84 ff ff 	l.addi r4,r4,0xffffffff
    3d7c:	8c e7 00 00 	l.lbz r7,0x0(r7)
    3d80:	d8 03 38 00 	l.sb 0x0(r3),r7
    3d84:	84 ee 00 04 	l.lwz r7,0x4(r14)
    3d88:	e0 e7 30 00 	l.add r7,r7,r6
    3d8c:	8c e7 00 00 	l.lbz r7,0x0(r7)
    3d90:	d8 03 38 01 	l.sb 0x1(r3),r7
    3d94:	84 ee 00 08 	l.lwz r7,0x8(r14)
    3d98:	e0 c7 30 00 	l.add r6,r7,r6
    3d9c:	8c c6 00 00 	l.lbz r6,0x0(r6)
    3da0:	d8 03 30 02 	l.sb 0x2(r3),r6
    3da4:	9c 63 00 03 	l.addi r3,r3,0x3
    3da8:	bc 24 00 00 	l.sfnei r4,0x0
    3dac:	13 ff ff ef 	l.bf 3d68 <get_interlaced_row+0xc4>
    3db0:	9d 60 00 01 	l.addi r11,r0,0x1
    3db4:	84 62 01 70 	l.lwz r3,0x170(r2)
    3db8:	9c 63 00 01 	l.addi r3,r3,0x1
    3dbc:	d4 02 19 70 	l.sw 0x170(r2),r3
    3dc0:	9c 21 00 10 	l.addi r1,r1,0x10
    3dc4:	85 21 ff fc 	l.lwz r9,0xfffffffc(r1)
    3dc8:	84 41 ff f0 	l.lwz r2,0xfffffff0(r1)
    3dcc:	85 c1 ff f4 	l.lwz r14,0xfffffff4(r1)
    3dd0:	44 00 48 00 	l.jr r9
    3dd4:	86 01 ff f8 	l.lwz r16,0xfffffff8(r1)

00003dd8 <finish_input_gif>:
    3dd8:	44 00 48 00 	l.jr r9
    3ddc:	15 00 00 00 	l.nop 0x0

00003de0 <ReadByte>:
    3de0:	84 83 00 0c 	l.lwz r4,0xc(r3)
    3de4:	d7 e1 17 f4 	l.sw 0xfffffff4(r1),r2
    3de8:	84 44 00 04 	l.lwz r2,0x4(r4)
    3dec:	d7 e1 77 f8 	l.sw 0xfffffff8(r1),r14
    3df0:	9c 42 ff ff 	l.addi r2,r2,0xffffffff
    3df4:	d7 e1 4f fc 	l.sw 0xfffffffc(r1),r9
    3df8:	d4 04 10 04 	l.sw 0x4(r4),r2
    3dfc:	9c 21 ff f4 	l.addi r1,r1,0xfffffff4
    3e00:	bd 62 00 00 	l.sfgesi r2,0x0
    3e04:	10 00 00 0b 	l.bf 3e30 <ReadByte+0x50>
    3e08:	a9 c3 00 00 	l.ori r14,r3,0x0
    3e0c:	18 40 00 02 	l.movhi r2,0x2
    3e10:	a8 42 f7 f4 	l.ori r2,r2,0xf7f4
    3e14:	04 00 53 bb 	l.jal 18d00 <__srget_r>
    3e18:	84 62 00 00 	l.lwz r3,0x0(r2)
    3e1c:	bc 0b ff ff 	l.sfeqi r11,0xffffffff
    3e20:	10 00 00 09 	l.bf 3e44 <ReadByte+0x64>
    3e24:	a8 4b 00 00 	l.ori r2,r11,0x0
    3e28:	00 00 00 0f 	l.j 3e64 <ReadByte+0x84>
    3e2c:	9c 21 00 0c 	l.addi r1,r1,0xc
    3e30:	84 64 00 00 	l.lwz r3,0x0(r4)
    3e34:	8c 43 00 00 	l.lbz r2,0x0(r3)
    3e38:	9c 63 00 01 	l.addi r3,r3,0x1
    3e3c:	00 00 00 09 	l.j 3e60 <ReadByte+0x80>
    3e40:	d4 04 18 00 	l.sw 0x0(r4),r3
    3e44:	84 6e 00 18 	l.lwz r3,0x18(r14)
    3e48:	9c a0 00 2a 	l.addi r5,r0,0x2a
    3e4c:	84 83 00 00 	l.lwz r4,0x0(r3)
    3e50:	d4 04 28 14 	l.sw 0x14(r4),r5
    3e54:	84 84 00 00 	l.lwz r4,0x0(r4)
    3e58:	48 00 20 00 	l.jalr r4
    3e5c:	15 00 00 00 	l.nop 0x0
    3e60:	9c 21 00 0c 	l.addi r1,r1,0xc
    3e64:	a9 62 00 00 	l.ori r11,r2,0x0
    3e68:	85 21 ff fc 	l.lwz r9,0xfffffffc(r1)
    3e6c:	84 41 ff f4 	l.lwz r2,0xfffffff4(r1)
    3e70:	44 00 48 00 	l.jr r9
    3e74:	85 c1 ff f8 	l.lwz r14,0xfffffff8(r1)

00003e78 <GetDataBlock>:
    3e78:	d7 e1 17 f0 	l.sw 0xfffffff0(r1),r2
    3e7c:	d7 e1 77 f4 	l.sw 0xfffffff4(r1),r14
    3e80:	d7 e1 87 f8 	l.sw 0xfffffff8(r1),r16
    3e84:	d7 e1 4f fc 	l.sw 0xfffffffc(r1),r9
    3e88:	9c 21 ff f0 	l.addi r1,r1,0xfffffff0
    3e8c:	a9 c3 00 00 	l.ori r14,r3,0x0
    3e90:	07 ff ff d4 	l.jal 3de0 <ReadByte>
    3e94:	aa 04 00 00 	l.ori r16,r4,0x0
    3e98:	bd ab 00 00 	l.sflesi r11,0x0
    3e9c:	10 00 00 10 	l.bf 3edc <GetDataBlock+0x64>
    3ea0:	a8 4b 00 00 	l.ori r2,r11,0x0
    3ea4:	a8 70 00 00 	l.ori r3,r16,0x0
    3ea8:	9c 80 00 01 	l.addi r4,r0,0x1
    3eac:	a8 ab 00 00 	l.ori r5,r11,0x0
    3eb0:	04 00 46 07 	l.jal 156cc <fread>
    3eb4:	84 ce 00 0c 	l.lwz r6,0xc(r14)
    3eb8:	e4 0b 10 00 	l.sfeq r11,r2
    3ebc:	10 00 00 08 	l.bf 3edc <GetDataBlock+0x64>
    3ec0:	9c a0 00 2a 	l.addi r5,r0,0x2a
    3ec4:	84 6e 00 18 	l.lwz r3,0x18(r14)
    3ec8:	84 83 00 00 	l.lwz r4,0x0(r3)
    3ecc:	d4 04 28 14 	l.sw 0x14(r4),r5
    3ed0:	84 84 00 00 	l.lwz r4,0x0(r4)
    3ed4:	48 00 20 00 	l.jalr r4
    3ed8:	15 00 00 00 	l.nop 0x0
    3edc:	9c 21 00 10 	l.addi r1,r1,0x10
    3ee0:	a9 62 00 00 	l.ori r11,r2,0x0
    3ee4:	85 21 ff fc 	l.lwz r9,0xfffffffc(r1)
    3ee8:	84 41 ff f0 	l.lwz r2,0xfffffff0(r1)
    3eec:	85 c1 ff f4 	l.lwz r14,0xfffffff4(r1)
    3ef0:	44 00 48 00 	l.jr r9
    3ef4:	86 01 ff f8 	l.lwz r16,0xfffffff8(r1)

00003ef8 <SkipDataBlocks>:
    3ef8:	d7 e1 17 f4 	l.sw 0xfffffff4(r1),r2
    3efc:	d7 e1 4f fc 	l.sw 0xfffffffc(r1),r9
    3f00:	d7 e1 77 f8 	l.sw 0xfffffff8(r1),r14
    3f04:	a8 43 00 00 	l.ori r2,r3,0x0
    3f08:	9c 21 fe f4 	l.addi r1,r1,0xfffffef4
    3f0c:	a8 62 00 00 	l.ori r3,r2,0x0
    3f10:	07 ff ff da 	l.jal 3e78 <GetDataBlock>
    3f14:	a8 81 00 00 	l.ori r4,r1,0x0
    3f18:	bd 4b 00 00 	l.sfgtsi r11,0x0
    3f1c:	13 ff ff fd 	l.bf 3f10 <SkipDataBlocks+0x18>
    3f20:	a8 62 00 00 	l.ori r3,r2,0x0
    3f24:	9c 21 01 0c 	l.addi r1,r1,0x10c
    3f28:	85 21 ff fc 	l.lwz r9,0xfffffffc(r1)
    3f2c:	84 41 ff f4 	l.lwz r2,0xfffffff4(r1)
    3f30:	44 00 48 00 	l.jr r9
    3f34:	85 c1 ff f8 	l.lwz r14,0xfffffff8(r1)

00003f38 <GetCode>:
    3f38:	d7 e1 17 f4 	l.sw 0xfffffff4(r1),r2
    3f3c:	d7 e1 77 f8 	l.sw 0xfffffff8(r1),r14
    3f40:	d7 e1 4f fc 	l.sw 0xfffffffc(r1),r9
    3f44:	a8 43 00 00 	l.ori r2,r3,0x0
    3f48:	9c 21 ff f4 	l.addi r1,r1,0xfffffff4
    3f4c:	00 00 00 25 	l.j 3fe0 <GetCode+0xa8>
    3f50:	9d c3 00 22 	l.addi r14,r3,0x22
    3f54:	84 62 01 30 	l.lwz r3,0x130(r2)
    3f58:	bc 03 00 00 	l.sfeqi r3,0x0
    3f5c:	0c 00 00 0f 	l.bnf 3f98 <GetCode+0x60>
    3f60:	15 00 00 00 	l.nop 0x0
    3f64:	84 62 01 24 	l.lwz r3,0x124(r2)
    3f68:	e0 62 18 00 	l.add r3,r2,r3
    3f6c:	8c 83 00 1e 	l.lbz r4,0x1e(r3)
    3f70:	d8 02 20 20 	l.sb 0x20(r2),r4
    3f74:	a8 8e 00 00 	l.ori r4,r14,0x0
    3f78:	8c 63 00 1f 	l.lbz r3,0x1f(r3)
    3f7c:	d8 02 18 21 	l.sb 0x21(r2),r3
    3f80:	07 ff ff be 	l.jal 3e78 <GetDataBlock>
    3f84:	a8 62 00 00 	l.ori r3,r2,0x0
    3f88:	bc 2b 00 00 	l.sfnei r11,0x0
    3f8c:	10 00 00 0c 	l.bf 3fbc <GetCode+0x84>
    3f90:	9c 60 00 01 	l.addi r3,r0,0x1
    3f94:	d4 02 19 30 	l.sw 0x130(r2),r3
    3f98:	84 62 00 18 	l.lwz r3,0x18(r2)
    3f9c:	9c a0 04 00 	l.addi r5,r0,0x400
    3fa0:	84 83 00 00 	l.lwz r4,0x0(r3)
    3fa4:	d4 04 28 14 	l.sw 0x14(r4),r5
    3fa8:	84 a4 00 04 	l.lwz r5,0x4(r4)
    3fac:	48 00 28 00 	l.jalr r5
    3fb0:	9c 80 ff ff 	l.addi r4,r0,0xffffffff
    3fb4:	00 00 00 21 	l.j 4038 <GetCode+0x100>
    3fb8:	85 62 01 3c 	l.lwz r11,0x13c(r2)
    3fbc:	84 62 01 2c 	l.lwz r3,0x12c(r2)
    3fc0:	9d 6b 00 02 	l.addi r11,r11,0x2
    3fc4:	84 82 01 28 	l.lwz r4,0x128(r2)
    3fc8:	9c 63 00 10 	l.addi r3,r3,0x10
    3fcc:	d4 02 59 24 	l.sw 0x124(r2),r11
    3fd0:	b9 6b 00 03 	l.slli r11,r11,0x3
    3fd4:	e0 63 20 02 	l.sub r3,r3,r4
    3fd8:	d4 02 59 28 	l.sw 0x128(r2),r11
    3fdc:	d4 02 19 2c 	l.sw 0x12c(r2),r3
    3fe0:	84 62 01 2c 	l.lwz r3,0x12c(r2)
    3fe4:	84 c2 01 40 	l.lwz r6,0x140(r2)
    3fe8:	84 82 01 28 	l.lwz r4,0x128(r2)
    3fec:	e0 a6 18 00 	l.add r5,r6,r3
    3ff0:	e5 45 20 00 	l.sfgts r5,r4
    3ff4:	13 ff ff d8 	l.bf 3f54 <GetCode+0x1c>
    3ff8:	b8 83 00 83 	l.srai r4,r3,0x3
    3ffc:	a4 63 00 07 	l.andi r3,r3,0x7
    4000:	d4 02 29 2c 	l.sw 0x12c(r2),r5
    4004:	e0 82 20 00 	l.add r4,r2,r4
    4008:	8d 64 00 22 	l.lbz r11,0x22(r4)
    400c:	8c e4 00 21 	l.lbz r7,0x21(r4)
    4010:	b9 6b 00 08 	l.slli r11,r11,0x8
    4014:	8c 84 00 20 	l.lbz r4,0x20(r4)
    4018:	e1 6b 38 04 	l.or r11,r11,r7
    401c:	b9 6b 00 08 	l.slli r11,r11,0x8
    4020:	e1 6b 20 04 	l.or r11,r11,r4
    4024:	e1 6b 18 88 	l.sra r11,r11,r3
    4028:	9c 60 00 01 	l.addi r3,r0,0x1
    402c:	e0 c3 30 08 	l.sll r6,r3,r6
    4030:	9c c6 ff ff 	l.addi r6,r6,0xffffffff
    4034:	e1 6b 30 03 	l.and r11,r11,r6
    4038:	9c 21 00 0c 	l.addi r1,r1,0xc
    403c:	85 21 ff fc 	l.lwz r9,0xfffffffc(r1)
    4040:	84 41 ff f4 	l.lwz r2,0xfffffff4(r1)
    4044:	44 00 48 00 	l.jr r9
    4048:	85 c1 ff f8 	l.lwz r14,0xfffffff8(r1)

0000404c <LZWReadByte>:
    404c:	d7 e1 17 f8 	l.sw 0xfffffff8(r1),r2
    4050:	d7 e1 4f fc 	l.sw 0xfffffffc(r1),r9
    4054:	84 83 01 4c 	l.lwz r4,0x14c(r3)
    4058:	9c 21 ff f8 	l.addi r1,r1,0xfffffff8
    405c:	bc 04 00 00 	l.sfeqi r4,0x0
    4060:	10 00 00 06 	l.bf 4078 <LZWReadByte+0x2c>
    4064:	a8 43 00 00 	l.ori r2,r3,0x0
    4068:	9c 60 00 00 	l.addi r3,r0,0x0
    406c:	85 62 01 38 	l.lwz r11,0x138(r2)
    4070:	00 00 00 0d 	l.j 40a4 <LZWReadByte+0x58>
    4074:	d4 02 19 4c 	l.sw 0x14c(r2),r3
    4078:	84 83 01 64 	l.lwz r4,0x164(r3)
    407c:	84 a3 01 60 	l.lwz r5,0x160(r3)
    4080:	e4 a4 28 00 	l.sfleu r4,r5
    4084:	10 00 00 06 	l.bf 409c <LZWReadByte+0x50>
    4088:	15 00 00 00 	l.nop 0x0
    408c:	9c 64 ff ff 	l.addi r3,r4,0xffffffff
    4090:	d4 02 19 64 	l.sw 0x164(r2),r3
    4094:	00 00 00 77 	l.j 4270 <LZWReadByte+0x224>
    4098:	8d 63 00 00 	l.lbz r11,0x0(r3)
    409c:	07 ff ff a7 	l.jal 3f38 <GetCode>
    40a0:	15 00 00 00 	l.nop 0x0
    40a4:	84 62 01 38 	l.lwz r3,0x138(r2)
    40a8:	e4 2b 18 00 	l.sfne r11,r3
    40ac:	10 00 00 1d 	l.bf 4120 <LZWReadByte+0xd4>
    40b0:	15 00 00 00 	l.nop 0x0
    40b4:	84 62 01 34 	l.lwz r3,0x134(r2)
    40b8:	9c 63 00 01 	l.addi r3,r3,0x1
    40bc:	d4 02 19 40 	l.sw 0x140(r2),r3
    40c0:	e0 6b 58 00 	l.add r3,r11,r11
    40c4:	9d 6b 00 02 	l.addi r11,r11,0x2
    40c8:	d4 02 19 44 	l.sw 0x144(r2),r3
    40cc:	84 62 01 60 	l.lwz r3,0x160(r2)
    40d0:	d4 02 59 48 	l.sw 0x148(r2),r11
    40d4:	d4 02 19 64 	l.sw 0x164(r2),r3
    40d8:	07 ff ff 98 	l.jal 3f38 <GetCode>
    40dc:	a8 62 00 00 	l.ori r3,r2,0x0
    40e0:	84 62 01 38 	l.lwz r3,0x138(r2)
    40e4:	e4 0b 18 00 	l.sfeq r11,r3
    40e8:	13 ff ff fc 	l.bf 40d8 <LZWReadByte+0x8c>
    40ec:	e5 ab 18 00 	l.sfles r11,r3
    40f0:	10 00 00 09 	l.bf 4114 <LZWReadByte+0xc8>
    40f4:	9c a0 03 fd 	l.addi r5,r0,0x3fd
    40f8:	84 62 00 18 	l.lwz r3,0x18(r2)
    40fc:	84 83 00 00 	l.lwz r4,0x0(r3)
    4100:	d4 04 28 14 	l.sw 0x14(r4),r5
    4104:	84 a4 00 04 	l.lwz r5,0x4(r4)
    4108:	48 00 28 00 	l.jalr r5
    410c:	9c 80 ff ff 	l.addi r4,r0,0xffffffff
    4110:	9d 60 00 00 	l.addi r11,r0,0x0
    4114:	d4 02 59 50 	l.sw 0x150(r2),r11
    4118:	00 00 00 56 	l.j 4270 <LZWReadByte+0x224>
    411c:	d4 02 59 54 	l.sw 0x154(r2),r11
    4120:	84 62 01 3c 	l.lwz r3,0x13c(r2)
    4124:	e4 2b 18 00 	l.sfne r11,r3
    4128:	10 00 00 13 	l.bf 4174 <LZWReadByte+0x128>
    412c:	15 00 00 00 	l.nop 0x0
    4130:	84 62 01 30 	l.lwz r3,0x130(r2)
    4134:	bc 23 00 00 	l.sfnei r3,0x0
    4138:	10 00 00 06 	l.bf 4150 <LZWReadByte+0x104>
    413c:	15 00 00 00 	l.nop 0x0
    4140:	07 ff ff 6e 	l.jal 3ef8 <SkipDataBlocks>
    4144:	a8 62 00 00 	l.ori r3,r2,0x0
    4148:	9c 60 00 01 	l.addi r3,r0,0x1
    414c:	d4 02 19 30 	l.sw 0x130(r2),r3
    4150:	84 62 00 18 	l.lwz r3,0x18(r2)
    4154:	9c 80 03 ff 	l.addi r4,r0,0x3ff
    4158:	84 43 00 00 	l.lwz r2,0x0(r3)
    415c:	d4 02 20 14 	l.sw 0x14(r2),r4
    4160:	84 42 00 04 	l.lwz r2,0x4(r2)
    4164:	48 00 10 00 	l.jalr r2
    4168:	9c 80 ff ff 	l.addi r4,r0,0xffffffff
    416c:	00 00 00 41 	l.j 4270 <LZWReadByte+0x224>
    4170:	9d 60 00 00 	l.addi r11,r0,0x0
    4174:	84 82 01 48 	l.lwz r4,0x148(r2)
    4178:	e5 8b 20 00 	l.sflts r11,r4
    417c:	10 00 00 1e 	l.bf 41f4 <LZWReadByte+0x1a8>
    4180:	a8 6b 00 00 	l.ori r3,r11,0x0
    4184:	e5 ab 20 00 	l.sfles r11,r4
    4188:	10 00 00 09 	l.bf 41ac <LZWReadByte+0x160>
    418c:	9c a0 03 fd 	l.addi r5,r0,0x3fd
    4190:	84 62 00 18 	l.lwz r3,0x18(r2)
    4194:	84 83 00 00 	l.lwz r4,0x0(r3)
    4198:	d4 04 28 14 	l.sw 0x14(r4),r5
    419c:	84 a4 00 04 	l.lwz r5,0x4(r4)
    41a0:	48 00 28 00 	l.jalr r5
    41a4:	9c 80 ff ff 	l.addi r4,r0,0xffffffff
    41a8:	9c 60 00 00 	l.addi r3,r0,0x0
    41ac:	8c a2 01 57 	l.lbz r5,0x157(r2)
    41b0:	84 82 01 64 	l.lwz r4,0x164(r2)
    41b4:	d8 04 28 00 	l.sb 0x0(r4),r5
    41b8:	9c 84 00 01 	l.addi r4,r4,0x1
    41bc:	85 62 01 50 	l.lwz r11,0x150(r2)
    41c0:	00 00 00 0d 	l.j 41f4 <LZWReadByte+0x1a8>
    41c4:	d4 02 21 64 	l.sw 0x164(r2),r4
    41c8:	84 a2 01 5c 	l.lwz r5,0x15c(r2)
    41cc:	84 82 01 64 	l.lwz r4,0x164(r2)
    41d0:	e0 a5 58 00 	l.add r5,r5,r11
    41d4:	e1 6b 58 00 	l.add r11,r11,r11
    41d8:	8c a5 00 00 	l.lbz r5,0x0(r5)
    41dc:	d8 04 28 00 	l.sb 0x0(r4),r5
    41e0:	9c 84 00 01 	l.addi r4,r4,0x1
    41e4:	d4 02 21 64 	l.sw 0x164(r2),r4
    41e8:	84 82 01 58 	l.lwz r4,0x158(r2)
    41ec:	e1 64 58 00 	l.add r11,r4,r11
    41f0:	95 6b 00 00 	l.lhz r11,0x0(r11)
    41f4:	84 82 01 38 	l.lwz r4,0x138(r2)
    41f8:	e5 6b 20 00 	l.sfges r11,r4
    41fc:	13 ff ff f3 	l.bf 41c8 <LZWReadByte+0x17c>
    4200:	15 00 00 00 	l.nop 0x0
    4204:	84 82 01 48 	l.lwz r4,0x148(r2)
    4208:	bd 44 0f ff 	l.sfgtsi r4,0xfff
    420c:	10 00 00 17 	l.bf 4268 <LZWReadByte+0x21c>
    4210:	d4 02 59 54 	l.sw 0x154(r2),r11
    4214:	84 c2 01 58 	l.lwz r6,0x158(r2)
    4218:	e0 a4 20 00 	l.add r5,r4,r4
    421c:	e0 a6 28 00 	l.add r5,r6,r5
    4220:	94 c2 01 52 	l.lhz r6,0x152(r2)
    4224:	dc 05 30 00 	l.sh 0x0(r5),r6
    4228:	84 a2 01 5c 	l.lwz r5,0x15c(r2)
    422c:	e0 85 20 00 	l.add r4,r5,r4
    4230:	d8 04 58 00 	l.sb 0x0(r4),r11
    4234:	84 a2 01 48 	l.lwz r5,0x148(r2)
    4238:	84 82 01 44 	l.lwz r4,0x144(r2)
    423c:	9c a5 00 01 	l.addi r5,r5,0x1
    4240:	e5 85 20 00 	l.sflts r5,r4
    4244:	10 00 00 09 	l.bf 4268 <LZWReadByte+0x21c>
    4248:	d4 02 29 48 	l.sw 0x148(r2),r5
    424c:	84 a2 01 40 	l.lwz r5,0x140(r2)
    4250:	bd 45 00 0b 	l.sfgtsi r5,0xb
    4254:	10 00 00 05 	l.bf 4268 <LZWReadByte+0x21c>
    4258:	9c a5 00 01 	l.addi r5,r5,0x1
    425c:	e0 84 20 00 	l.add r4,r4,r4
    4260:	d4 02 29 40 	l.sw 0x140(r2),r5
    4264:	d4 02 21 44 	l.sw 0x144(r2),r4
    4268:	d4 02 19 50 	l.sw 0x150(r2),r3
    426c:	85 62 01 54 	l.lwz r11,0x154(r2)
    4270:	9c 21 00 08 	l.addi r1,r1,0x8
    4274:	85 21 ff fc 	l.lwz r9,0xfffffffc(r1)
    4278:	44 00 48 00 	l.jr r9
    427c:	84 41 ff f8 	l.lwz r2,0xfffffff8(r1)

00004280 <get_pixel_rows>:
    4280:	d7 e1 17 ec 	l.sw 0xffffffec(r1),r2
    4284:	d7 e1 87 f4 	l.sw 0xfffffff4(r1),r16
    4288:	84 44 00 1c 	l.lwz r2,0x1c(r4)
    428c:	aa 04 00 00 	l.ori r16,r4,0x0
    4290:	84 84 00 10 	l.lwz r4,0x10(r4)
    4294:	d7 e1 77 f0 	l.sw 0xfffffff0(r1),r14
    4298:	d7 e1 97 f8 	l.sw 0xfffffff8(r1),r18
    429c:	d7 e1 4f fc 	l.sw 0xfffffffc(r1),r9
    42a0:	85 c4 00 00 	l.lwz r14,0x0(r4)
    42a4:	9c 21 ff ec 	l.addi r1,r1,0xffffffec
    42a8:	00 00 00 11 	l.j 42ec <get_pixel_rows+0x6c>
    42ac:	86 43 00 18 	l.lwz r18,0x18(r3)
    42b0:	07 ff ff 67 	l.jal 404c <LZWReadByte>
    42b4:	9e 52 ff ff 	l.addi r18,r18,0xffffffff
    42b8:	84 62 00 00 	l.lwz r3,0x0(r2)
    42bc:	e0 63 58 00 	l.add r3,r3,r11
    42c0:	8c 63 00 00 	l.lbz r3,0x0(r3)
    42c4:	d8 0e 18 00 	l.sb 0x0(r14),r3
    42c8:	84 62 00 04 	l.lwz r3,0x4(r2)
    42cc:	e0 63 58 00 	l.add r3,r3,r11
    42d0:	8c 63 00 00 	l.lbz r3,0x0(r3)
    42d4:	d8 0e 18 01 	l.sb 0x1(r14),r3
    42d8:	84 62 00 08 	l.lwz r3,0x8(r2)
    42dc:	e1 63 58 00 	l.add r11,r3,r11
    42e0:	8d 6b 00 00 	l.lbz r11,0x0(r11)
    42e4:	d8 0e 58 02 	l.sb 0x2(r14),r11
    42e8:	9d ce 00 03 	l.addi r14,r14,0x3
    42ec:	bc 32 00 00 	l.sfnei r18,0x0
    42f0:	13 ff ff f0 	l.bf 42b0 <get_pixel_rows+0x30>
    42f4:	a8 70 00 00 	l.ori r3,r16,0x0
    42f8:	9c 21 00 14 	l.addi r1,r1,0x14
    42fc:	9d 60 00 01 	l.addi r11,r0,0x1
    4300:	85 21 ff fc 	l.lwz r9,0xfffffffc(r1)
    4304:	84 41 ff ec 	l.lwz r2,0xffffffec(r1)
    4308:	85 c1 ff f0 	l.lwz r14,0xfffffff0(r1)
    430c:	86 01 ff f4 	l.lwz r16,0xfffffff4(r1)
    4310:	44 00 48 00 	l.jr r9
    4314:	86 41 ff f8 	l.lwz r18,0xfffffff8(r1)

00004318 <load_interlaced_image>:
    4318:	d7 e1 17 e4 	l.sw 0xffffffe4(r1),r2
    431c:	d7 e1 77 e8 	l.sw 0xffffffe8(r1),r14
    4320:	d7 e1 87 ec 	l.sw 0xffffffec(r1),r16
    4324:	d7 e1 97 f0 	l.sw 0xfffffff0(r1),r18
    4328:	d7 e1 4f fc 	l.sw 0xfffffffc(r1),r9
    432c:	d7 e1 a7 f4 	l.sw 0xfffffff4(r1),r20
    4330:	d7 e1 b7 f8 	l.sw 0xfffffff8(r1),r22
    4334:	aa 03 00 00 	l.ori r16,r3,0x0
    4338:	9c 21 ff e4 	l.addi r1,r1,0xffffffe4
    433c:	a9 c4 00 00 	l.ori r14,r4,0x0
    4340:	84 43 00 08 	l.lwz r2,0x8(r3)
    4344:	00 00 00 1c 	l.j 43b4 <load_interlaced_image+0x9c>
    4348:	9e 40 00 00 	l.addi r18,r0,0x0
    434c:	10 00 00 07 	l.bf 4368 <load_interlaced_image+0x50>
    4350:	15 00 00 00 	l.nop 0x0
    4354:	d4 02 18 08 	l.sw 0x8(r2),r3
    4358:	d4 02 90 04 	l.sw 0x4(r2),r18
    435c:	84 82 00 00 	l.lwz r4,0x0(r2)
    4360:	48 00 20 00 	l.jalr r4
    4364:	a8 70 00 00 	l.ori r3,r16,0x0
    4368:	84 70 00 04 	l.lwz r3,0x4(r16)
    436c:	9c c0 00 01 	l.addi r6,r0,0x1
    4370:	85 63 00 1c 	l.lwz r11,0x1c(r3)
    4374:	84 8e 01 6c 	l.lwz r4,0x16c(r14)
    4378:	a8 70 00 00 	l.ori r3,r16,0x0
    437c:	a8 b2 00 00 	l.ori r5,r18,0x0
    4380:	48 00 58 00 	l.jalr r11
    4384:	a8 e6 00 00 	l.ori r7,r6,0x0
    4388:	86 90 00 18 	l.lwz r20,0x18(r16)
    438c:	00 00 00 06 	l.j 43a4 <load_interlaced_image+0x8c>
    4390:	86 cb 00 00 	l.lwz r22,0x0(r11)
    4394:	07 ff ff 2e 	l.jal 404c <LZWReadByte>
    4398:	9e 94 ff ff 	l.addi r20,r20,0xffffffff
    439c:	d8 16 58 00 	l.sb 0x0(r22),r11
    43a0:	9e d6 00 01 	l.addi r22,r22,0x1
    43a4:	bc 34 00 00 	l.sfnei r20,0x0
    43a8:	13 ff ff fb 	l.bf 4394 <load_interlaced_image+0x7c>
    43ac:	a8 6e 00 00 	l.ori r3,r14,0x0
    43b0:	9e 52 00 01 	l.addi r18,r18,0x1
    43b4:	84 70 00 1c 	l.lwz r3,0x1c(r16)
    43b8:	e4 92 18 00 	l.sfltu r18,r3
    43bc:	13 ff ff e4 	l.bf 434c <load_interlaced_image+0x34>
    43c0:	bc 02 00 00 	l.sfeqi r2,0x0
    43c4:	10 00 00 05 	l.bf 43d8 <load_interlaced_image+0xc0>
    43c8:	15 00 00 00 	l.nop 0x0
    43cc:	84 82 00 14 	l.lwz r4,0x14(r2)
    43d0:	9c 84 00 01 	l.addi r4,r4,0x1
    43d4:	d4 02 20 14 	l.sw 0x14(r2),r4
    43d8:	18 40 00 00 	l.movhi r2,0x0
    43dc:	9c 83 00 07 	l.addi r4,r3,0x7
    43e0:	a8 42 3c a4 	l.ori r2,r2,0x3ca4
    43e4:	b8 84 00 43 	l.srli r4,r4,0x3
    43e8:	d4 0e 10 04 	l.sw 0x4(r14),r2
    43ec:	9c 40 00 00 	l.addi r2,r0,0x0
    43f0:	d4 0e 21 74 	l.sw 0x174(r14),r4
    43f4:	d4 0e 11 70 	l.sw 0x170(r14),r2
    43f8:	9c 43 00 03 	l.addi r2,r3,0x3
    43fc:	9c 63 00 01 	l.addi r3,r3,0x1
    4400:	b8 42 00 43 	l.srli r2,r2,0x3
    4404:	b8 63 00 42 	l.srli r3,r3,0x2
    4408:	e0 42 20 00 	l.add r2,r2,r4
    440c:	a8 8e 00 00 	l.ori r4,r14,0x0
    4410:	d4 0e 11 78 	l.sw 0x178(r14),r2
    4414:	e0 42 18 00 	l.add r2,r2,r3
    4418:	a8 70 00 00 	l.ori r3,r16,0x0
    441c:	d4 0e 11 7c 	l.sw 0x17c(r14),r2
    4420:	9c 21 00 1c 	l.addi r1,r1,0x1c
    4424:	85 21 ff fc 	l.lwz r9,0xfffffffc(r1)
    4428:	84 41 ff e4 	l.lwz r2,0xffffffe4(r1)
    442c:	85 c1 ff e8 	l.lwz r14,0xffffffe8(r1)
    4430:	86 01 ff ec 	l.lwz r16,0xffffffec(r1)
    4434:	86 41 ff f0 	l.lwz r18,0xfffffff0(r1)
    4438:	86 81 ff f4 	l.lwz r20,0xfffffff4(r1)
    443c:	03 ff fe 1a 	l.j 3ca4 <get_interlaced_row>
    4440:	86 c1 ff f8 	l.lwz r22,0xfffffff8(r1)

00004444 <ReadColorMap>:
    4444:	d7 e1 17 e8 	l.sw 0xffffffe8(r1),r2
    4448:	d7 e1 77 ec 	l.sw 0xffffffec(r1),r14
    444c:	d7 e1 87 f0 	l.sw 0xfffffff0(r1),r16
    4450:	d7 e1 97 f4 	l.sw 0xfffffff4(r1),r18
    4454:	d7 e1 4f fc 	l.sw 0xfffffffc(r1),r9
    4458:	d7 e1 a7 f8 	l.sw 0xfffffff8(r1),r20
    445c:	aa 03 00 00 	l.ori r16,r3,0x0
    4460:	9c 21 ff e8 	l.addi r1,r1,0xffffffe8
    4464:	aa 44 00 00 	l.ori r18,r4,0x0
    4468:	a9 c5 00 00 	l.ori r14,r5,0x0
    446c:	00 00 00 11 	l.j 44b0 <ReadColorMap+0x6c>
    4470:	9c 40 00 00 	l.addi r2,r0,0x0
    4474:	86 8e 00 00 	l.lwz r20,0x0(r14)
    4478:	07 ff fe 5a 	l.jal 3de0 <ReadByte>
    447c:	e2 94 10 00 	l.add r20,r20,r2
    4480:	d8 14 58 00 	l.sb 0x0(r20),r11
    4484:	a8 70 00 00 	l.ori r3,r16,0x0
    4488:	07 ff fe 56 	l.jal 3de0 <ReadByte>
    448c:	86 8e 00 04 	l.lwz r20,0x4(r14)
    4490:	e2 94 10 00 	l.add r20,r20,r2
    4494:	a8 70 00 00 	l.ori r3,r16,0x0
    4498:	d8 14 58 00 	l.sb 0x0(r20),r11
    449c:	07 ff fe 51 	l.jal 3de0 <ReadByte>
    44a0:	86 8e 00 08 	l.lwz r20,0x8(r14)
    44a4:	e2 94 10 00 	l.add r20,r20,r2
    44a8:	9c 42 00 01 	l.addi r2,r2,0x1
    44ac:	d8 14 58 00 	l.sb 0x0(r20),r11
    44b0:	e5 82 90 00 	l.sflts r2,r18
    44b4:	13 ff ff f0 	l.bf 4474 <ReadColorMap+0x30>
    44b8:	a8 70 00 00 	l.ori r3,r16,0x0
    44bc:	9c 21 00 18 	l.addi r1,r1,0x18
    44c0:	85 21 ff fc 	l.lwz r9,0xfffffffc(r1)
    44c4:	84 41 ff e8 	l.lwz r2,0xffffffe8(r1)
    44c8:	85 c1 ff ec 	l.lwz r14,0xffffffec(r1)
    44cc:	86 01 ff f0 	l.lwz r16,0xfffffff0(r1)
    44d0:	86 41 ff f4 	l.lwz r18,0xfffffff4(r1)
    44d4:	44 00 48 00 	l.jr r9
    44d8:	86 81 ff f8 	l.lwz r20,0xfffffff8(r1)

000044dc <start_input_gif>:
    44dc:	d7 e1 77 e4 	l.sw 0xffffffe4(r1),r14
    44e0:	a9 c4 00 00 	l.ori r14,r4,0x0
    44e4:	84 83 00 04 	l.lwz r4,0x4(r3)
    44e8:	d7 e1 4f fc 	l.sw 0xfffffffc(r1),r9
    44ec:	d7 e1 17 e0 	l.sw 0xffffffe0(r1),r2
    44f0:	d7 e1 87 e8 	l.sw 0xffffffe8(r1),r16
    44f4:	d7 e1 97 ec 	l.sw 0xffffffec(r1),r18
    44f8:	d7 e1 a7 f0 	l.sw 0xfffffff0(r1),r20
    44fc:	d7 e1 b7 f4 	l.sw 0xfffffff4(r1),r22
    4500:	d7 e1 c7 f8 	l.sw 0xfffffff8(r1),r24
    4504:	85 64 00 08 	l.lwz r11,0x8(r4)
    4508:	9c 21 ff d4 	l.addi r1,r1,0xffffffd4
    450c:	9c 80 00 01 	l.addi r4,r0,0x1
    4510:	9c a0 01 00 	l.addi r5,r0,0x100
    4514:	9c c0 00 03 	l.addi r6,r0,0x3
    4518:	48 00 58 00 	l.jalr r11
    451c:	a8 43 00 00 	l.ori r2,r3,0x0
    4520:	a8 61 00 00 	l.ori r3,r1,0x0
    4524:	d4 0e 58 1c 	l.sw 0x1c(r14),r11
    4528:	9c 80 00 01 	l.addi r4,r0,0x1
    452c:	9c a0 00 06 	l.addi r5,r0,0x6
    4530:	04 00 44 67 	l.jal 156cc <fread>
    4534:	84 ce 00 0c 	l.lwz r6,0xc(r14)
    4538:	bc 0b 00 06 	l.sfeqi r11,0x6
    453c:	10 00 00 07 	l.bf 4558 <start_input_gif+0x7c>
    4540:	9c 80 03 f8 	l.addi r4,r0,0x3f8
    4544:	84 62 00 00 	l.lwz r3,0x0(r2)
    4548:	d4 03 20 14 	l.sw 0x14(r3),r4
    454c:	84 83 00 00 	l.lwz r4,0x0(r3)
    4550:	48 00 20 00 	l.jalr r4
    4554:	a8 62 00 00 	l.ori r3,r2,0x0
    4558:	90 61 00 00 	l.lbs r3,0x0(r1)
    455c:	bc 23 00 47 	l.sfnei r3,0x47
    4560:	10 00 00 0a 	l.bf 4588 <start_input_gif+0xac>
    4564:	15 00 00 00 	l.nop 0x0
    4568:	90 61 00 01 	l.lbs r3,0x1(r1)
    456c:	bc 23 00 49 	l.sfnei r3,0x49
    4570:	10 00 00 06 	l.bf 4588 <start_input_gif+0xac>
    4574:	15 00 00 00 	l.nop 0x0
    4578:	90 61 00 02 	l.lbs r3,0x2(r1)
    457c:	bc 03 00 46 	l.sfeqi r3,0x46
    4580:	10 00 00 09 	l.bf 45a4 <start_input_gif+0xc8>
    4584:	90 81 00 03 	l.lbs r4,0x3(r1)
    4588:	84 62 00 00 	l.lwz r3,0x0(r2)
    458c:	9c 80 03 f8 	l.addi r4,r0,0x3f8
    4590:	d4 03 20 14 	l.sw 0x14(r3),r4
    4594:	84 83 00 00 	l.lwz r4,0x0(r3)
    4598:	48 00 20 00 	l.jalr r4
    459c:	a8 62 00 00 	l.ori r3,r2,0x0
    45a0:	90 81 00 03 	l.lbs r4,0x3(r1)
    45a4:	bc 24 00 38 	l.sfnei r4,0x38
    45a8:	10 00 00 10 	l.bf 45e8 <start_input_gif+0x10c>
    45ac:	15 00 00 00 	l.nop 0x0
    45b0:	90 61 00 04 	l.lbs r3,0x4(r1)
    45b4:	ac a3 00 39 	l.xori r5,r3,0x39
    45b8:	a4 a5 00 ff 	l.andi r5,r5,0xff
    45bc:	bc 05 00 00 	l.sfeqi r5,0x0
    45c0:	10 00 00 06 	l.bf 45d8 <start_input_gif+0xfc>
    45c4:	ac 63 00 37 	l.xori r3,r3,0x37
    45c8:	a4 63 00 ff 	l.andi r3,r3,0xff
    45cc:	bc 23 00 00 	l.sfnei r3,0x0
    45d0:	10 00 00 06 	l.bf 45e8 <start_input_gif+0x10c>
    45d4:	15 00 00 00 	l.nop 0x0
    45d8:	90 61 00 05 	l.lbs r3,0x5(r1)
    45dc:	bc 03 00 61 	l.sfeqi r3,0x61
    45e0:	10 00 00 0f 	l.bf 461c <start_input_gif+0x140>
    45e4:	15 00 00 00 	l.nop 0x0
    45e8:	84 62 00 00 	l.lwz r3,0x0(r2)
    45ec:	d4 03 20 18 	l.sw 0x18(r3),r4
    45f0:	90 81 00 04 	l.lbs r4,0x4(r1)
    45f4:	d4 03 20 1c 	l.sw 0x1c(r3),r4
    45f8:	90 81 00 05 	l.lbs r4,0x5(r1)
    45fc:	d4 03 20 20 	l.sw 0x20(r3),r4
    4600:	9c 80 03 fa 	l.addi r4,r0,0x3fa
    4604:	84 62 00 00 	l.lwz r3,0x0(r2)
    4608:	d4 03 20 14 	l.sw 0x14(r3),r4
    460c:	84 a3 00 04 	l.lwz r5,0x4(r3)
    4610:	9c 80 00 01 	l.addi r4,r0,0x1
    4614:	48 00 28 00 	l.jalr r5
    4618:	a8 62 00 00 	l.ori r3,r2,0x0
    461c:	a8 61 00 00 	l.ori r3,r1,0x0
    4620:	9c 80 00 01 	l.addi r4,r0,0x1
    4624:	9c a0 00 07 	l.addi r5,r0,0x7
    4628:	04 00 44 29 	l.jal 156cc <fread>
    462c:	84 ce 00 0c 	l.lwz r6,0xc(r14)
    4630:	bc 0b 00 07 	l.sfeqi r11,0x7
    4634:	10 00 00 07 	l.bf 4650 <start_input_gif+0x174>
    4638:	9c 80 00 2a 	l.addi r4,r0,0x2a
    463c:	84 62 00 00 	l.lwz r3,0x0(r2)
    4640:	d4 03 20 14 	l.sw 0x14(r3),r4
    4644:	84 83 00 00 	l.lwz r4,0x0(r3)
    4648:	48 00 20 00 	l.jalr r4
    464c:	a8 62 00 00 	l.ori r3,r2,0x0
    4650:	8e 41 00 04 	l.lbz r18,0x4(r1)
    4654:	9c 60 00 02 	l.addi r3,r0,0x2
    4658:	a6 52 00 07 	l.andi r18,r18,0x7
    465c:	e2 43 90 08 	l.sll r18,r3,r18
    4660:	8c 61 00 06 	l.lbz r3,0x6(r1)
    4664:	bc 03 00 31 	l.sfeqi r3,0x31
    4668:	10 00 00 0b 	l.bf 4694 <start_input_gif+0x1b8>
    466c:	bc 03 00 00 	l.sfeqi r3,0x0
    4670:	10 00 00 0a 	l.bf 4698 <start_input_gif+0x1bc>
    4674:	90 61 00 04 	l.lbs r3,0x4(r1)
    4678:	84 62 00 00 	l.lwz r3,0x0(r2)
    467c:	9c 80 03 fc 	l.addi r4,r0,0x3fc
    4680:	84 a3 00 04 	l.lwz r5,0x4(r3)
    4684:	d4 03 20 14 	l.sw 0x14(r3),r4
    4688:	a8 62 00 00 	l.ori r3,r2,0x0
    468c:	48 00 28 00 	l.jalr r5
    4690:	9c 80 00 01 	l.addi r4,r0,0x1
    4694:	90 61 00 04 	l.lbs r3,0x4(r1)
    4698:	bd 63 00 00 	l.sfgesi r3,0x0
    469c:	10 00 00 07 	l.bf 46b8 <start_input_gif+0x1dc>
    46a0:	9f 00 03 fe 	l.addi r24,r0,0x3fe
    46a4:	a8 6e 00 00 	l.ori r3,r14,0x0
    46a8:	a8 92 00 00 	l.ori r4,r18,0x0
    46ac:	07 ff ff 66 	l.jal 4444 <ReadColorMap>
    46b0:	84 ae 00 1c 	l.lwz r5,0x1c(r14)
    46b4:	9f 00 03 fe 	l.addi r24,r0,0x3fe
    46b8:	9e c0 03 fb 	l.addi r22,r0,0x3fb
    46bc:	9e 80 03 f7 	l.addi r20,r0,0x3f7
    46c0:	07 ff fd c8 	l.jal 3de0 <ReadByte>
    46c4:	a8 6e 00 00 	l.ori r3,r14,0x0
    46c8:	bc 2b 00 3b 	l.sfnei r11,0x3b
    46cc:	10 00 00 09 	l.bf 46f0 <start_input_gif+0x214>
    46d0:	aa 0b 00 00 	l.ori r16,r11,0x0
    46d4:	84 62 00 00 	l.lwz r3,0x0(r2)
    46d8:	d4 03 a0 14 	l.sw 0x14(r3),r20
    46dc:	84 83 00 00 	l.lwz r4,0x0(r3)
    46e0:	48 00 20 00 	l.jalr r4
    46e4:	a8 62 00 00 	l.ori r3,r2,0x0
    46e8:	00 00 00 17 	l.j 4744 <start_input_gif+0x268>
    46ec:	84 62 00 00 	l.lwz r3,0x0(r2)
    46f0:	bc 2b 00 21 	l.sfnei r11,0x21
    46f4:	10 00 00 11 	l.bf 4738 <start_input_gif+0x25c>
    46f8:	bc 0b 00 2c 	l.sfeqi r11,0x2c
    46fc:	07 ff fd b9 	l.jal 3de0 <ReadByte>
    4700:	a8 6e 00 00 	l.ori r3,r14,0x0
    4704:	84 6e 00 18 	l.lwz r3,0x18(r14)
    4708:	84 63 00 00 	l.lwz r3,0x0(r3)
    470c:	d4 03 58 18 	l.sw 0x18(r3),r11
    4710:	d4 03 b0 14 	l.sw 0x14(r3),r22
    4714:	84 6e 00 18 	l.lwz r3,0x18(r14)
    4718:	84 83 00 00 	l.lwz r4,0x0(r3)
    471c:	84 a4 00 04 	l.lwz r5,0x4(r4)
    4720:	48 00 28 00 	l.jalr r5
    4724:	9c 80 00 01 	l.addi r4,r0,0x1
    4728:	07 ff fd f4 	l.jal 3ef8 <SkipDataBlocks>
    472c:	a8 6e 00 00 	l.ori r3,r14,0x0
    4730:	03 ff ff e4 	l.j 46c0 <start_input_gif+0x1e4>
    4734:	15 00 00 00 	l.nop 0x0
    4738:	10 00 00 0c 	l.bf 4768 <start_input_gif+0x28c>
    473c:	9c 80 00 01 	l.addi r4,r0,0x1
    4740:	84 62 00 00 	l.lwz r3,0x0(r2)
    4744:	9c 80 ff ff 	l.addi r4,r0,0xffffffff
    4748:	d4 03 80 18 	l.sw 0x18(r3),r16
    474c:	d4 03 c0 14 	l.sw 0x14(r3),r24
    4750:	84 62 00 00 	l.lwz r3,0x0(r2)
    4754:	84 a3 00 04 	l.lwz r5,0x4(r3)
    4758:	48 00 28 00 	l.jalr r5
    475c:	a8 62 00 00 	l.ori r3,r2,0x0
    4760:	03 ff ff d8 	l.j 46c0 <start_input_gif+0x1e4>
    4764:	15 00 00 00 	l.nop 0x0
    4768:	a8 61 00 00 	l.ori r3,r1,0x0
    476c:	9c a0 00 09 	l.addi r5,r0,0x9
    4770:	04 00 43 d7 	l.jal 156cc <fread>
    4774:	84 ce 00 0c 	l.lwz r6,0xc(r14)
    4778:	bc 0b 00 09 	l.sfeqi r11,0x9
    477c:	10 00 00 07 	l.bf 4798 <start_input_gif+0x2bc>
    4780:	9c 80 00 2a 	l.addi r4,r0,0x2a
    4784:	84 62 00 00 	l.lwz r3,0x0(r2)
    4788:	d4 03 20 14 	l.sw 0x14(r3),r4
    478c:	84 83 00 00 	l.lwz r4,0x0(r3)
    4790:	48 00 20 00 	l.jalr r4
    4794:	a8 62 00 00 	l.ori r3,r2,0x0
    4798:	8e 01 00 05 	l.lbz r16,0x5(r1)
    479c:	8c 61 00 04 	l.lbz r3,0x4(r1)
    47a0:	ba 10 00 08 	l.slli r16,r16,0x8
    47a4:	8e 81 00 07 	l.lbz r20,0x7(r1)
    47a8:	90 81 00 08 	l.lbs r4,0x8(r1)
    47ac:	e2 10 18 04 	l.or r16,r16,r3
    47b0:	ba 94 00 08 	l.slli r20,r20,0x8
    47b4:	8c 61 00 06 	l.lbz r3,0x6(r1)
    47b8:	e2 94 18 04 	l.or r20,r20,r3
    47bc:	a4 64 00 ff 	l.andi r3,r4,0xff
    47c0:	bd 64 00 00 	l.sfgesi r4,0x0
    47c4:	a4 a3 00 40 	l.andi r5,r3,0x40
    47c8:	10 00 00 09 	l.bf 47ec <start_input_gif+0x310>
    47cc:	d4 0e 29 68 	l.sw 0x168(r14),r5
    47d0:	a4 63 00 07 	l.andi r3,r3,0x7
    47d4:	9e 40 00 02 	l.addi r18,r0,0x2
    47d8:	84 ae 00 1c 	l.lwz r5,0x1c(r14)
    47dc:	e2 52 18 08 	l.sll r18,r18,r3
    47e0:	a8 6e 00 00 	l.ori r3,r14,0x0
    47e4:	07 ff ff 18 	l.jal 4444 <ReadColorMap>
    47e8:	a8 92 00 00 	l.ori r4,r18,0x0
    47ec:	07 ff fd 7d 	l.jal 3de0 <ReadByte>
    47f0:	a8 6e 00 00 	l.ori r3,r14,0x0
    47f4:	9c 6b ff fe 	l.addi r3,r11,0xfffffffe
    47f8:	bc a3 00 09 	l.sfleui r3,0x9
    47fc:	10 00 00 0a 	l.bf 4824 <start_input_gif+0x348>
    4800:	d4 0e 59 34 	l.sw 0x134(r14),r11
    4804:	84 62 00 00 	l.lwz r3,0x0(r2)
    4808:	9c 80 03 f5 	l.addi r4,r0,0x3f5
    480c:	d4 03 58 18 	l.sw 0x18(r3),r11
    4810:	d4 03 20 14 	l.sw 0x14(r3),r4
    4814:	84 62 00 00 	l.lwz r3,0x0(r2)
    4818:	84 83 00 00 	l.lwz r4,0x0(r3)
    481c:	48 00 20 00 	l.jalr r4
    4820:	a8 62 00 00 	l.ori r3,r2,0x0
    4824:	84 62 00 04 	l.lwz r3,0x4(r2)
    4828:	9c 80 00 01 	l.addi r4,r0,0x1
    482c:	85 63 00 04 	l.lwz r11,0x4(r3)
    4830:	9c a0 20 00 	l.addi r5,r0,0x2000
    4834:	48 00 58 00 	l.jalr r11
    4838:	a8 62 00 00 	l.ori r3,r2,0x0
    483c:	84 62 00 04 	l.lwz r3,0x4(r2)
    4840:	d4 0e 59 58 	l.sw 0x158(r14),r11
    4844:	9c 80 00 01 	l.addi r4,r0,0x1
    4848:	85 63 00 04 	l.lwz r11,0x4(r3)
    484c:	9c a0 10 00 	l.addi r5,r0,0x1000
    4850:	48 00 58 00 	l.jalr r11
    4854:	a8 62 00 00 	l.ori r3,r2,0x0
    4858:	84 62 00 04 	l.lwz r3,0x4(r2)
    485c:	d4 0e 59 5c 	l.sw 0x15c(r14),r11
    4860:	9c 80 00 01 	l.addi r4,r0,0x1
    4864:	85 63 00 04 	l.lwz r11,0x4(r3)
    4868:	9c a0 10 00 	l.addi r5,r0,0x1000
    486c:	48 00 58 00 	l.jalr r11
    4870:	a8 62 00 00 	l.ori r3,r2,0x0
    4874:	9c 60 00 02 	l.addi r3,r0,0x2
    4878:	9c a0 00 01 	l.addi r5,r0,0x1
    487c:	84 8e 01 34 	l.lwz r4,0x134(r14)
    4880:	d4 0e 19 24 	l.sw 0x124(r14),r3
    4884:	9c 60 00 00 	l.addi r3,r0,0x0
    4888:	d4 0e 59 60 	l.sw 0x160(r14),r11
    488c:	d4 0e 19 28 	l.sw 0x128(r14),r3
    4890:	d4 0e 19 2c 	l.sw 0x12c(r14),r3
    4894:	d4 0e 19 30 	l.sw 0x130(r14),r3
    4898:	e0 65 20 08 	l.sll r3,r5,r4
    489c:	e0 84 28 00 	l.add r4,r4,r5
    48a0:	d4 0e 29 4c 	l.sw 0x14c(r14),r5
    48a4:	e0 c3 28 00 	l.add r6,r3,r5
    48a8:	d4 0e 19 38 	l.sw 0x138(r14),r3
    48ac:	d4 0e 21 40 	l.sw 0x140(r14),r4
    48b0:	e0 83 18 00 	l.add r4,r3,r3
    48b4:	9c 63 00 02 	l.addi r3,r3,0x2
    48b8:	d4 0e 31 3c 	l.sw 0x13c(r14),r6
    48bc:	d4 0e 19 48 	l.sw 0x148(r14),r3
    48c0:	d4 0e 21 44 	l.sw 0x144(r14),r4
    48c4:	84 6e 01 68 	l.lwz r3,0x168(r14)
    48c8:	bc 03 00 00 	l.sfeqi r3,0x0
    48cc:	10 00 00 15 	l.bf 4920 <start_input_gif+0x444>
    48d0:	d4 0e 59 64 	l.sw 0x164(r14),r11
    48d4:	84 62 00 04 	l.lwz r3,0x4(r2)
    48d8:	a8 85 00 00 	l.ori r4,r5,0x0
    48dc:	85 63 00 10 	l.lwz r11,0x10(r3)
    48e0:	9c a0 00 00 	l.addi r5,r0,0x0
    48e4:	a8 62 00 00 	l.ori r3,r2,0x0
    48e8:	a8 d0 00 00 	l.ori r6,r16,0x0
    48ec:	a8 f4 00 00 	l.ori r7,r20,0x0
    48f0:	48 00 58 00 	l.jalr r11
    48f4:	a9 04 00 00 	l.ori r8,r4,0x0
    48f8:	84 62 00 08 	l.lwz r3,0x8(r2)
    48fc:	bc 03 00 00 	l.sfeqi r3,0x0
    4900:	10 00 00 05 	l.bf 4914 <start_input_gif+0x438>
    4904:	d4 0e 59 6c 	l.sw 0x16c(r14),r11
    4908:	84 83 00 18 	l.lwz r4,0x18(r3)
    490c:	9c 84 00 01 	l.addi r4,r4,0x1
    4910:	d4 03 20 18 	l.sw 0x18(r3),r4
    4914:	18 60 00 00 	l.movhi r3,0x0
    4918:	00 00 00 04 	l.j 4928 <start_input_gif+0x44c>
    491c:	a8 63 43 18 	l.ori r3,r3,0x4318
    4920:	18 60 00 00 	l.movhi r3,0x0
    4924:	a8 63 42 80 	l.ori r3,r3,0x4280
    4928:	d4 0e 18 04 	l.sw 0x4(r14),r3
    492c:	9c 80 00 01 	l.addi r4,r0,0x1
    4930:	84 62 00 04 	l.lwz r3,0x4(r2)
    4934:	e0 b0 80 00 	l.add r5,r16,r16
    4938:	a8 c4 00 00 	l.ori r6,r4,0x0
    493c:	e0 a5 80 00 	l.add r5,r5,r16
    4940:	85 63 00 08 	l.lwz r11,0x8(r3)
    4944:	48 00 58 00 	l.jalr r11
    4948:	a8 62 00 00 	l.ori r3,r2,0x0
    494c:	9c 80 00 01 	l.addi r4,r0,0x1
    4950:	9c 60 00 02 	l.addi r3,r0,0x2
    4954:	d4 0e 58 10 	l.sw 0x10(r14),r11
    4958:	d4 0e 20 14 	l.sw 0x14(r14),r4
    495c:	d4 02 18 24 	l.sw 0x24(r2),r3
    4960:	9c 60 00 03 	l.addi r3,r0,0x3
    4964:	d4 02 80 18 	l.sw 0x18(r2),r16
    4968:	d4 02 18 20 	l.sw 0x20(r2),r3
    496c:	9c 60 00 08 	l.addi r3,r0,0x8
    4970:	d4 02 a0 1c 	l.sw 0x1c(r2),r20
    4974:	d4 02 18 30 	l.sw 0x30(r2),r3
    4978:	84 62 00 00 	l.lwz r3,0x0(r2)
    497c:	9c a0 03 f9 	l.addi r5,r0,0x3f9
    4980:	d4 03 80 18 	l.sw 0x18(r3),r16
    4984:	d4 03 a0 1c 	l.sw 0x1c(r3),r20
    4988:	d4 03 90 20 	l.sw 0x20(r3),r18
    498c:	84 62 00 00 	l.lwz r3,0x0(r2)
    4990:	d4 03 28 14 	l.sw 0x14(r3),r5
    4994:	84 a3 00 04 	l.lwz r5,0x4(r3)
    4998:	48 00 28 00 	l.jalr r5
    499c:	a8 62 00 00 	l.ori r3,r2,0x0
    49a0:	9c 21 00 2c 	l.addi r1,r1,0x2c
    49a4:	85 21 ff fc 	l.lwz r9,0xfffffffc(r1)
    49a8:	84 41 ff e0 	l.lwz r2,0xffffffe0(r1)
    49ac:	85 c1 ff e4 	l.lwz r14,0xffffffe4(r1)
    49b0:	86 01 ff e8 	l.lwz r16,0xffffffe8(r1)
    49b4:	86 41 ff ec 	l.lwz r18,0xffffffec(r1)
    49b8:	86 81 ff f0 	l.lwz r20,0xfffffff0(r1)
    49bc:	86 c1 ff f4 	l.lwz r22,0xfffffff4(r1)
    49c0:	44 00 48 00 	l.jr r9
    49c4:	87 01 ff f8 	l.lwz r24,0xfffffff8(r1)

000049c8 <jinit_read_gif>:
    49c8:	84 83 00 04 	l.lwz r4,0x4(r3)
    49cc:	d7 e1 4f fc 	l.sw 0xfffffffc(r1),r9
    49d0:	d7 e1 17 f8 	l.sw 0xfffffff8(r1),r2
    49d4:	85 64 00 00 	l.lwz r11,0x0(r4)
    49d8:	a8 43 00 00 	l.ori r2,r3,0x0
    49dc:	9c 21 ff f8 	l.addi r1,r1,0xfffffff8
    49e0:	9c 80 00 01 	l.addi r4,r0,0x1
    49e4:	48 00 58 00 	l.jalr r11
    49e8:	9c a0 01 80 	l.addi r5,r0,0x180
    49ec:	d4 0b 10 18 	l.sw 0x18(r11),r2
    49f0:	18 40 00 00 	l.movhi r2,0x0
    49f4:	a8 42 44 dc 	l.ori r2,r2,0x44dc
    49f8:	d4 0b 10 00 	l.sw 0x0(r11),r2
    49fc:	18 40 00 00 	l.movhi r2,0x0
    4a00:	a8 42 3d d8 	l.ori r2,r2,0x3dd8
    4a04:	d4 0b 10 08 	l.sw 0x8(r11),r2
    4a08:	9c 21 00 08 	l.addi r1,r1,0x8
    4a0c:	85 21 ff fc 	l.lwz r9,0xfffffffc(r1)
    4a10:	44 00 48 00 	l.jr r9
    4a14:	84 41 ff f8 	l.lwz r2,0xfffffff8(r1)

00004a18 <get_8bit_gray_row>:
    4a18:	d7 e1 17 f0 	l.sw 0xfffffff0(r1),r2
    4a1c:	a8 44 00 00 	l.ori r2,r4,0x0
    4a20:	84 84 00 10 	l.lwz r4,0x10(r4)
    4a24:	d7 e1 77 f4 	l.sw 0xfffffff4(r1),r14
    4a28:	d7 e1 87 f8 	l.sw 0xfffffff8(r1),r16
    4a2c:	d7 e1 4f fc 	l.sw 0xfffffffc(r1),r9
    4a30:	86 04 00 00 	l.lwz r16,0x0(r4)
    4a34:	9c 21 ff f0 	l.addi r1,r1,0xfffffff0
    4a38:	00 00 00 08 	l.j 4a58 <get_8bit_gray_row+0x40>
    4a3c:	85 c3 00 18 	l.lwz r14,0x18(r3)
    4a40:	84 82 00 28 	l.lwz r4,0x28(r2)
    4a44:	48 00 20 00 	l.jalr r4
    4a48:	9d ce ff ff 	l.addi r14,r14,0xffffffff
    4a4c:	8c 62 00 2c 	l.lbz r3,0x2c(r2)
    4a50:	d8 10 18 00 	l.sb 0x0(r16),r3
    4a54:	9e 10 00 01 	l.addi r16,r16,0x1
    4a58:	bc 2e 00 00 	l.sfnei r14,0x0
    4a5c:	13 ff ff f9 	l.bf 4a40 <get_8bit_gray_row+0x28>
    4a60:	a8 62 00 00 	l.ori r3,r2,0x0
    4a64:	9c 21 00 10 	l.addi r1,r1,0x10
    4a68:	9d 60 00 01 	l.addi r11,r0,0x1
    4a6c:	85 21 ff fc 	l.lwz r9,0xfffffffc(r1)
    4a70:	84 41 ff f0 	l.lwz r2,0xfffffff0(r1)
    4a74:	85 c1 ff f4 	l.lwz r14,0xfffffff4(r1)
    4a78:	44 00 48 00 	l.jr r9
    4a7c:	86 01 ff f8 	l.lwz r16,0xfffffff8(r1)

00004a80 <get_8bit_row>:
    4a80:	d7 e1 17 ec 	l.sw 0xffffffec(r1),r2
    4a84:	d7 e1 77 f0 	l.sw 0xfffffff0(r1),r14
    4a88:	a8 44 00 00 	l.ori r2,r4,0x0
    4a8c:	85 c4 00 1c 	l.lwz r14,0x1c(r4)
    4a90:	84 84 00 10 	l.lwz r4,0x10(r4)
    4a94:	d7 e1 87 f4 	l.sw 0xfffffff4(r1),r16
    4a98:	d7 e1 97 f8 	l.sw 0xfffffff8(r1),r18
    4a9c:	d7 e1 4f fc 	l.sw 0xfffffffc(r1),r9
    4aa0:	86 04 00 00 	l.lwz r16,0x0(r4)
    4aa4:	9c 21 ff ec 	l.addi r1,r1,0xffffffec
    4aa8:	00 00 00 13 	l.j 4af4 <get_8bit_row+0x74>
    4aac:	86 43 00 18 	l.lwz r18,0x18(r3)
    4ab0:	84 82 00 28 	l.lwz r4,0x28(r2)
    4ab4:	48 00 20 00 	l.jalr r4
    4ab8:	9e 52 ff ff 	l.addi r18,r18,0xffffffff
    4abc:	8c 62 00 2c 	l.lbz r3,0x2c(r2)
    4ac0:	84 8e 00 00 	l.lwz r4,0x0(r14)
    4ac4:	e0 84 18 00 	l.add r4,r4,r3
    4ac8:	8c 84 00 00 	l.lbz r4,0x0(r4)
    4acc:	d8 10 20 00 	l.sb 0x0(r16),r4
    4ad0:	84 8e 00 04 	l.lwz r4,0x4(r14)
    4ad4:	e0 84 18 00 	l.add r4,r4,r3
    4ad8:	8c 84 00 00 	l.lbz r4,0x0(r4)
    4adc:	d8 10 20 01 	l.sb 0x1(r16),r4
    4ae0:	84 8e 00 08 	l.lwz r4,0x8(r14)
    4ae4:	e0 64 18 00 	l.add r3,r4,r3
    4ae8:	8c 63 00 00 	l.lbz r3,0x0(r3)
    4aec:	d8 10 18 02 	l.sb 0x2(r16),r3
    4af0:	9e 10 00 03 	l.addi r16,r16,0x3
    4af4:	bc 32 00 00 	l.sfnei r18,0x0
    4af8:	13 ff ff ee 	l.bf 4ab0 <get_8bit_row+0x30>
    4afc:	a8 62 00 00 	l.ori r3,r2,0x0
    4b00:	9c 21 00 14 	l.addi r1,r1,0x14
    4b04:	9d 60 00 01 	l.addi r11,r0,0x1
    4b08:	85 21 ff fc 	l.lwz r9,0xfffffffc(r1)
    4b0c:	84 41 ff ec 	l.lwz r2,0xffffffec(r1)
    4b10:	85 c1 ff f0 	l.lwz r14,0xfffffff0(r1)
    4b14:	86 01 ff f4 	l.lwz r16,0xfffffff4(r1)
    4b18:	44 00 48 00 	l.jr r9
    4b1c:	86 41 ff f8 	l.lwz r18,0xfffffff8(r1)

00004b20 <get_16bit_row>:
    4b20:	d7 e1 17 f0 	l.sw 0xfffffff0(r1),r2
    4b24:	a8 44 00 00 	l.ori r2,r4,0x0
    4b28:	84 84 00 10 	l.lwz r4,0x10(r4)
    4b2c:	d7 e1 77 f4 	l.sw 0xfffffff4(r1),r14
    4b30:	d7 e1 87 f8 	l.sw 0xfffffff8(r1),r16
    4b34:	d7 e1 4f fc 	l.sw 0xfffffffc(r1),r9
    4b38:	85 c4 00 00 	l.lwz r14,0x0(r4)
    4b3c:	9c 21 ff f0 	l.addi r1,r1,0xfffffff0
    4b40:	00 00 00 1a 	l.j 4ba8 <get_16bit_row+0x88>
    4b44:	86 03 00 18 	l.lwz r16,0x18(r3)
    4b48:	84 82 00 28 	l.lwz r4,0x28(r2)
    4b4c:	48 00 20 00 	l.jalr r4
    4b50:	9e 10 ff ff 	l.addi r16,r16,0xffffffff
    4b54:	8c 62 00 2d 	l.lbz r3,0x2d(r2)
    4b58:	8c 82 00 2c 	l.lbz r4,0x2c(r2)
    4b5c:	b8 63 00 08 	l.slli r3,r3,0x8
    4b60:	18 a0 00 02 	l.movhi r5,0x2
    4b64:	e0 63 20 00 	l.add r3,r3,r4
    4b68:	a8 a5 a8 78 	l.ori r5,r5,0xa878
    4b6c:	a4 83 00 1f 	l.andi r4,r3,0x1f
    4b70:	e0 84 28 00 	l.add r4,r4,r5
    4b74:	8c 84 00 00 	l.lbz r4,0x0(r4)
    4b78:	d8 0e 20 02 	l.sb 0x2(r14),r4
    4b7c:	b8 83 00 85 	l.srai r4,r3,0x5
    4b80:	b8 63 00 8a 	l.srai r3,r3,0xa
    4b84:	a4 84 00 1f 	l.andi r4,r4,0x1f
    4b88:	a4 63 00 1f 	l.andi r3,r3,0x1f
    4b8c:	e0 84 28 00 	l.add r4,r4,r5
    4b90:	e0 63 28 00 	l.add r3,r3,r5
    4b94:	8c 84 00 00 	l.lbz r4,0x0(r4)
    4b98:	8c 63 00 00 	l.lbz r3,0x0(r3)
    4b9c:	d8 0e 20 01 	l.sb 0x1(r14),r4
    4ba0:	d8 0e 18 00 	l.sb 0x0(r14),r3
    4ba4:	9d ce 00 03 	l.addi r14,r14,0x3
    4ba8:	bc 30 00 00 	l.sfnei r16,0x0
    4bac:	13 ff ff e7 	l.bf 4b48 <get_16bit_row+0x28>
    4bb0:	a8 62 00 00 	l.ori r3,r2,0x0
    4bb4:	9c 21 00 10 	l.addi r1,r1,0x10
    4bb8:	9d 60 00 01 	l.addi r11,r0,0x1
    4bbc:	85 21 ff fc 	l.lwz r9,0xfffffffc(r1)
    4bc0:	84 41 ff f0 	l.lwz r2,0xfffffff0(r1)
    4bc4:	85 c1 ff f4 	l.lwz r14,0xfffffff4(r1)
    4bc8:	44 00 48 00 	l.jr r9
    4bcc:	86 01 ff f8 	l.lwz r16,0xfffffff8(r1)

00004bd0 <get_24bit_row>:
    4bd0:	d7 e1 17 f0 	l.sw 0xfffffff0(r1),r2
    4bd4:	a8 44 00 00 	l.ori r2,r4,0x0
    4bd8:	84 84 00 10 	l.lwz r4,0x10(r4)
    4bdc:	d7 e1 77 f4 	l.sw 0xfffffff4(r1),r14
    4be0:	d7 e1 87 f8 	l.sw 0xfffffff8(r1),r16
    4be4:	d7 e1 4f fc 	l.sw 0xfffffffc(r1),r9
    4be8:	85 c4 00 00 	l.lwz r14,0x0(r4)
    4bec:	9c 21 ff f0 	l.addi r1,r1,0xfffffff0
    4bf0:	00 00 00 0c 	l.j 4c20 <get_24bit_row+0x50>
    4bf4:	86 03 00 18 	l.lwz r16,0x18(r3)
    4bf8:	84 82 00 28 	l.lwz r4,0x28(r2)
    4bfc:	48 00 20 00 	l.jalr r4
    4c00:	9e 10 ff ff 	l.addi r16,r16,0xffffffff
    4c04:	8c 62 00 2e 	l.lbz r3,0x2e(r2)
    4c08:	d8 0e 18 00 	l.sb 0x0(r14),r3
    4c0c:	8c 62 00 2d 	l.lbz r3,0x2d(r2)
    4c10:	d8 0e 18 01 	l.sb 0x1(r14),r3
    4c14:	8c 62 00 2c 	l.lbz r3,0x2c(r2)
    4c18:	d8 0e 18 02 	l.sb 0x2(r14),r3
    4c1c:	9d ce 00 03 	l.addi r14,r14,0x3
    4c20:	bc 30 00 00 	l.sfnei r16,0x0
    4c24:	13 ff ff f5 	l.bf 4bf8 <get_24bit_row+0x28>
    4c28:	a8 62 00 00 	l.ori r3,r2,0x0
    4c2c:	9c 21 00 10 	l.addi r1,r1,0x10
    4c30:	9d 60 00 01 	l.addi r11,r0,0x1
    4c34:	85 21 ff fc 	l.lwz r9,0xfffffffc(r1)
    4c38:	84 41 ff f0 	l.lwz r2,0xfffffff0(r1)
    4c3c:	85 c1 ff f4 	l.lwz r14,0xfffffff4(r1)
    4c40:	44 00 48 00 	l.jr r9
    4c44:	86 01 ff f8 	l.lwz r16,0xfffffff8(r1)

00004c48 <get_memory_row>:
    4c48:	d7 e1 17 f8 	l.sw 0xfffffff8(r1),r2
    4c4c:	84 a3 00 1c 	l.lwz r5,0x1c(r3)
    4c50:	a8 44 00 00 	l.ori r2,r4,0x0
    4c54:	9c a5 ff ff 	l.addi r5,r5,0xffffffff
    4c58:	84 83 00 04 	l.lwz r4,0x4(r3)
    4c5c:	84 c2 00 24 	l.lwz r6,0x24(r2)
    4c60:	d7 e1 4f fc 	l.sw 0xfffffffc(r1),r9
    4c64:	85 64 00 1c 	l.lwz r11,0x1c(r4)
    4c68:	9c 21 ff f8 	l.addi r1,r1,0xfffffff8
    4c6c:	84 82 00 20 	l.lwz r4,0x20(r2)
    4c70:	e0 a5 30 02 	l.sub r5,r5,r6
    4c74:	9c e0 00 00 	l.addi r7,r0,0x0
    4c78:	48 00 58 00 	l.jalr r11
    4c7c:	9c c0 00 01 	l.addi r6,r0,0x1
    4c80:	84 62 00 24 	l.lwz r3,0x24(r2)
    4c84:	d4 02 58 10 	l.sw 0x10(r2),r11
    4c88:	9c 63 00 01 	l.addi r3,r3,0x1
    4c8c:	9d 60 00 01 	l.addi r11,r0,0x1
    4c90:	d4 02 18 24 	l.sw 0x24(r2),r3
    4c94:	9c 21 00 08 	l.addi r1,r1,0x8
    4c98:	85 21 ff fc 	l.lwz r9,0xfffffffc(r1)
    4c9c:	44 00 48 00 	l.jr r9
    4ca0:	84 41 ff f8 	l.lwz r2,0xfffffff8(r1)

00004ca4 <preload_image>:
    4ca4:	d7 e1 17 ec 	l.sw 0xffffffec(r1),r2
    4ca8:	d7 e1 77 f0 	l.sw 0xfffffff0(r1),r14
    4cac:	d7 e1 87 f4 	l.sw 0xfffffff4(r1),r16
    4cb0:	d7 e1 97 f8 	l.sw 0xfffffff8(r1),r18
    4cb4:	d7 e1 4f fc 	l.sw 0xfffffffc(r1),r9
    4cb8:	a8 43 00 00 	l.ori r2,r3,0x0
    4cbc:	9c 21 ff ec 	l.addi r1,r1,0xffffffec
    4cc0:	aa 04 00 00 	l.ori r16,r4,0x0
    4cc4:	85 c3 00 08 	l.lwz r14,0x8(r3)
    4cc8:	00 00 00 17 	l.j 4d24 <preload_image+0x80>
    4ccc:	9e 40 00 00 	l.addi r18,r0,0x0
    4cd0:	10 00 00 07 	l.bf 4cec <preload_image+0x48>
    4cd4:	15 00 00 00 	l.nop 0x0
    4cd8:	d4 0e 18 08 	l.sw 0x8(r14),r3
    4cdc:	d4 0e 90 04 	l.sw 0x4(r14),r18
    4ce0:	84 8e 00 00 	l.lwz r4,0x0(r14)
    4ce4:	48 00 20 00 	l.jalr r4
    4ce8:	a8 62 00 00 	l.ori r3,r2,0x0
    4cec:	84 62 00 04 	l.lwz r3,0x4(r2)
    4cf0:	9c c0 00 01 	l.addi r6,r0,0x1
    4cf4:	a8 b2 00 00 	l.ori r5,r18,0x0
    4cf8:	85 63 00 1c 	l.lwz r11,0x1c(r3)
    4cfc:	84 90 00 20 	l.lwz r4,0x20(r16)
    4d00:	a8 62 00 00 	l.ori r3,r2,0x0
    4d04:	a8 e6 00 00 	l.ori r7,r6,0x0
    4d08:	48 00 58 00 	l.jalr r11
    4d0c:	9e 52 00 01 	l.addi r18,r18,0x1
    4d10:	a8 62 00 00 	l.ori r3,r2,0x0
    4d14:	d4 10 58 10 	l.sw 0x10(r16),r11
    4d18:	85 70 00 3c 	l.lwz r11,0x3c(r16)
    4d1c:	48 00 58 00 	l.jalr r11
    4d20:	a8 90 00 00 	l.ori r4,r16,0x0
    4d24:	84 62 00 1c 	l.lwz r3,0x1c(r2)
    4d28:	e4 92 18 00 	l.sfltu r18,r3
    4d2c:	13 ff ff e9 	l.bf 4cd0 <preload_image+0x2c>
    4d30:	bc 0e 00 00 	l.sfeqi r14,0x0
    4d34:	10 00 00 06 	l.bf 4d4c <preload_image+0xa8>
    4d38:	18 60 00 00 	l.movhi r3,0x0
    4d3c:	84 6e 00 14 	l.lwz r3,0x14(r14)
    4d40:	9c 63 00 01 	l.addi r3,r3,0x1
    4d44:	d4 0e 18 14 	l.sw 0x14(r14),r3
    4d48:	18 60 00 00 	l.movhi r3,0x0
    4d4c:	a8 90 00 00 	l.ori r4,r16,0x0
    4d50:	a8 63 4c 48 	l.ori r3,r3,0x4c48
    4d54:	d4 10 18 04 	l.sw 0x4(r16),r3
    4d58:	9c 60 00 00 	l.addi r3,r0,0x0
    4d5c:	d4 10 18 24 	l.sw 0x24(r16),r3
    4d60:	9c 21 00 14 	l.addi r1,r1,0x14
    4d64:	a8 62 00 00 	l.ori r3,r2,0x0
    4d68:	85 21 ff fc 	l.lwz r9,0xfffffffc(r1)
    4d6c:	84 41 ff ec 	l.lwz r2,0xffffffec(r1)
    4d70:	85 c1 ff f0 	l.lwz r14,0xfffffff0(r1)
    4d74:	86 01 ff f4 	l.lwz r16,0xfffffff4(r1)
    4d78:	03 ff ff b4 	l.j 4c48 <get_memory_row>
    4d7c:	86 41 ff f8 	l.lwz r18,0xfffffff8(r1)

00004d80 <finish_input_tga>:
    4d80:	44 00 48 00 	l.jr r9
    4d84:	15 00 00 00 	l.nop 0x0

00004d88 <read_byte>:
    4d88:	84 83 00 0c 	l.lwz r4,0xc(r3)
    4d8c:	d7 e1 17 f4 	l.sw 0xfffffff4(r1),r2
    4d90:	84 44 00 04 	l.lwz r2,0x4(r4)
    4d94:	d7 e1 77 f8 	l.sw 0xfffffff8(r1),r14
    4d98:	9c 42 ff ff 	l.addi r2,r2,0xffffffff
    4d9c:	d7 e1 4f fc 	l.sw 0xfffffffc(r1),r9
    4da0:	d4 04 10 04 	l.sw 0x4(r4),r2
    4da4:	9c 21 ff f4 	l.addi r1,r1,0xfffffff4
    4da8:	bd 62 00 00 	l.sfgesi r2,0x0
    4dac:	10 00 00 0b 	l.bf 4dd8 <read_byte+0x50>
    4db0:	a9 c3 00 00 	l.ori r14,r3,0x0
    4db4:	18 40 00 02 	l.movhi r2,0x2
    4db8:	a8 42 f7 f4 	l.ori r2,r2,0xf7f4
    4dbc:	04 00 4f d1 	l.jal 18d00 <__srget_r>
    4dc0:	84 62 00 00 	l.lwz r3,0x0(r2)
    4dc4:	bc 0b ff ff 	l.sfeqi r11,0xffffffff
    4dc8:	10 00 00 09 	l.bf 4dec <read_byte+0x64>
    4dcc:	a8 4b 00 00 	l.ori r2,r11,0x0
    4dd0:	00 00 00 0f 	l.j 4e0c <read_byte+0x84>
    4dd4:	9c 21 00 0c 	l.addi r1,r1,0xc
    4dd8:	84 64 00 00 	l.lwz r3,0x0(r4)
    4ddc:	8c 43 00 00 	l.lbz r2,0x0(r3)
    4de0:	9c 63 00 01 	l.addi r3,r3,0x1
    4de4:	00 00 00 09 	l.j 4e08 <read_byte+0x80>
    4de8:	d4 04 18 00 	l.sw 0x0(r4),r3
    4dec:	84 6e 00 18 	l.lwz r3,0x18(r14)
    4df0:	9c a0 00 2a 	l.addi r5,r0,0x2a
    4df4:	84 83 00 00 	l.lwz r4,0x0(r3)
    4df8:	d4 04 28 14 	l.sw 0x14(r4),r5
    4dfc:	84 84 00 00 	l.lwz r4,0x0(r4)
    4e00:	48 00 20 00 	l.jalr r4
    4e04:	15 00 00 00 	l.nop 0x0
    4e08:	9c 21 00 0c 	l.addi r1,r1,0xc
    4e0c:	a9 62 00 00 	l.ori r11,r2,0x0
    4e10:	85 21 ff fc 	l.lwz r9,0xfffffffc(r1)
    4e14:	84 41 ff f4 	l.lwz r2,0xfffffff4(r1)
    4e18:	44 00 48 00 	l.jr r9
    4e1c:	85 c1 ff f8 	l.lwz r14,0xfffffff8(r1)

00004e20 <start_input_tga>:
    4e20:	d7 e1 17 d4 	l.sw 0xffffffd4(r1),r2
    4e24:	d7 e1 77 d8 	l.sw 0xffffffd8(r1),r14
    4e28:	d7 e1 4f fc 	l.sw 0xfffffffc(r1),r9
    4e2c:	d7 e1 87 dc 	l.sw 0xffffffdc(r1),r16
    4e30:	d7 e1 97 e0 	l.sw 0xffffffe0(r1),r18
    4e34:	d7 e1 a7 e4 	l.sw 0xffffffe4(r1),r20
    4e38:	d7 e1 b7 e8 	l.sw 0xffffffe8(r1),r22
    4e3c:	d7 e1 c7 ec 	l.sw 0xffffffec(r1),r24
    4e40:	d7 e1 d7 f0 	l.sw 0xfffffff0(r1),r26
    4e44:	d7 e1 e7 f4 	l.sw 0xfffffff4(r1),r28
    4e48:	d7 e1 f7 f8 	l.sw 0xfffffff8(r1),r30
    4e4c:	a9 c4 00 00 	l.ori r14,r4,0x0
    4e50:	9c 21 ff c0 	l.addi r1,r1,0xffffffc0
    4e54:	a8 43 00 00 	l.ori r2,r3,0x0
    4e58:	9c 80 00 01 	l.addi r4,r0,0x1
    4e5c:	a8 61 00 00 	l.ori r3,r1,0x0
    4e60:	9c a0 00 12 	l.addi r5,r0,0x12
    4e64:	04 00 42 1a 	l.jal 156cc <fread>
    4e68:	84 ce 00 0c 	l.lwz r6,0xc(r14)
    4e6c:	bc 0b 00 12 	l.sfeqi r11,0x12
    4e70:	10 00 00 07 	l.bf 4e8c <start_input_tga+0x6c>
    4e74:	9c 80 00 2a 	l.addi r4,r0,0x2a
    4e78:	84 62 00 00 	l.lwz r3,0x0(r2)
    4e7c:	d4 03 20 14 	l.sw 0x14(r3),r4
    4e80:	84 83 00 00 	l.lwz r4,0x0(r3)
    4e84:	48 00 20 00 	l.jalr r4
    4e88:	a8 62 00 00 	l.ori r3,r2,0x0
    4e8c:	8c 61 00 10 	l.lbz r3,0x10(r1)
    4e90:	bc 23 00 0f 	l.sfnei r3,0xf
    4e94:	10 00 00 05 	l.bf 4ea8 <start_input_tga+0x88>
    4e98:	8f 01 00 06 	l.lbz r24,0x6(r1)
    4e9c:	9c 60 00 10 	l.addi r3,r0,0x10
    4ea0:	d8 01 18 10 	l.sb 0x10(r1),r3
    4ea4:	8f 01 00 06 	l.lbz r24,0x6(r1)
    4ea8:	8c 61 00 05 	l.lbz r3,0x5(r1)
    4eac:	bb 18 00 08 	l.slli r24,r24,0x8
    4eb0:	8e 81 00 0d 	l.lbz r20,0xd(r1)
    4eb4:	e3 18 18 00 	l.add r24,r24,r3
    4eb8:	ba 94 00 08 	l.slli r20,r20,0x8
    4ebc:	8c 61 00 0c 	l.lbz r3,0xc(r1)
    4ec0:	8e 41 00 0f 	l.lbz r18,0xf(r1)
    4ec4:	e2 94 18 00 	l.add r20,r20,r3
    4ec8:	ba 52 00 08 	l.slli r18,r18,0x8
    4ecc:	8c 61 00 0e 	l.lbz r3,0xe(r1)
    4ed0:	8c a1 00 10 	l.lbz r5,0x10(r1)
    4ed4:	e2 52 18 00 	l.add r18,r18,r3
    4ed8:	b8 65 00 43 	l.srli r3,r5,0x3
    4edc:	8f 41 00 01 	l.lbz r26,0x1(r1)
    4ee0:	8c 81 00 11 	l.lbz r4,0x11(r1)
    4ee4:	d4 0e 18 30 	l.sw 0x30(r14),r3
    4ee8:	8f c1 00 00 	l.lbz r30,0x0(r1)
    4eec:	8e 01 00 02 	l.lbz r16,0x2(r1)
    4ef0:	bd 5a 00 01 	l.sfgtsi r26,0x1
    4ef4:	10 00 00 0c 	l.bf 4f24 <start_input_tga+0x104>
    4ef8:	a7 84 00 20 	l.andi r28,r4,0x20
    4efc:	bc 03 00 00 	l.sfeqi r3,0x0
    4f00:	10 00 00 09 	l.bf 4f24 <start_input_tga+0x104>
    4f04:	bd 43 00 04 	l.sfgtsi r3,0x4
    4f08:	10 00 00 07 	l.bf 4f24 <start_input_tga+0x104>
    4f0c:	b8 84 00 86 	l.srai r4,r4,0x6
    4f10:	a4 a5 00 07 	l.andi r5,r5,0x7
    4f14:	e0 85 20 04 	l.or r4,r5,r4
    4f18:	bc 04 00 00 	l.sfeqi r4,0x0
    4f1c:	10 00 00 09 	l.bf 4f40 <start_input_tga+0x120>
    4f20:	bd b0 00 08 	l.sflesi r16,0x8
    4f24:	84 62 00 00 	l.lwz r3,0x0(r2)
    4f28:	9c 80 04 09 	l.addi r4,r0,0x409
    4f2c:	d4 03 20 14 	l.sw 0x14(r3),r4
    4f30:	84 83 00 00 	l.lwz r4,0x0(r3)
    4f34:	48 00 20 00 	l.jalr r4
    4f38:	a8 62 00 00 	l.ori r3,r2,0x0
    4f3c:	bd b0 00 08 	l.sflesi r16,0x8
    4f40:	10 00 00 0a 	l.bf 4f68 <start_input_tga+0x148>
    4f44:	18 60 00 00 	l.movhi r3,0x0
    4f48:	18 60 00 00 	l.movhi r3,0x0
    4f4c:	9c 80 00 00 	l.addi r4,r0,0x0
    4f50:	a8 63 53 bc 	l.ori r3,r3,0x53bc
    4f54:	d4 0e 20 38 	l.sw 0x38(r14),r4
    4f58:	d4 0e 18 28 	l.sw 0x28(r14),r3
    4f5c:	d4 0e 20 34 	l.sw 0x34(r14),r4
    4f60:	00 00 00 04 	l.j 4f70 <start_input_tga+0x150>
    4f64:	9e 10 ff f8 	l.addi r16,r16,0xfffffff8
    4f68:	a8 63 53 10 	l.ori r3,r3,0x5310
    4f6c:	d4 0e 18 28 	l.sw 0x28(r14),r3
    4f70:	9c 60 00 02 	l.addi r3,r0,0x2
    4f74:	e4 10 18 00 	l.sfeq r16,r3
    4f78:	10 00 00 1e 	l.bf 4ff0 <start_input_tga+0x1d0>
    4f7c:	d4 02 18 24 	l.sw 0x24(r2),r3
    4f80:	bc 10 00 03 	l.sfeqi r16,0x3
    4f84:	10 00 00 3c 	l.bf 5074 <start_input_tga+0x254>
    4f88:	bc 10 00 01 	l.sfeqi r16,0x1
    4f8c:	0c 00 00 57 	l.bnf 50e8 <start_input_tga+0x2c8>
    4f90:	9c 80 04 09 	l.addi r4,r0,0x409
    4f94:	bc 3a 00 01 	l.sfnei r26,0x1
    4f98:	10 00 00 0d 	l.bf 4fcc <start_input_tga+0x1ac>
    4f9c:	15 00 00 00 	l.nop 0x0
    4fa0:	84 6e 00 30 	l.lwz r3,0x30(r14)
    4fa4:	ac 63 00 01 	l.xori r3,r3,0x1
    4fa8:	e0 80 18 02 	l.sub r4,r0,r3
    4fac:	e0 64 18 04 	l.or r3,r4,r3
    4fb0:	bd 83 00 00 	l.sfltsi r3,0x0
    4fb4:	10 00 00 06 	l.bf 4fcc <start_input_tga+0x1ac>
    4fb8:	15 00 00 00 	l.nop 0x0
    4fbc:	18 60 00 00 	l.movhi r3,0x0
    4fc0:	a8 63 4a 80 	l.ori r3,r3,0x4a80
    4fc4:	00 00 00 08 	l.j 4fe4 <start_input_tga+0x1c4>
    4fc8:	d4 0e 18 3c 	l.sw 0x3c(r14),r3
    4fcc:	84 62 00 00 	l.lwz r3,0x0(r2)
    4fd0:	9c 80 04 09 	l.addi r4,r0,0x409
    4fd4:	d4 03 20 14 	l.sw 0x14(r3),r4
    4fd8:	84 83 00 00 	l.lwz r4,0x0(r3)
    4fdc:	48 00 20 00 	l.jalr r4
    4fe0:	a8 62 00 00 	l.ori r3,r2,0x0
    4fe4:	84 62 00 00 	l.lwz r3,0x0(r2)
    4fe8:	00 00 00 18 	l.j 5048 <start_input_tga+0x228>
    4fec:	9c 80 04 0d 	l.addi r4,r0,0x40d
    4ff0:	84 6e 00 30 	l.lwz r3,0x30(r14)
    4ff4:	bc 03 00 03 	l.sfeqi r3,0x3
    4ff8:	10 00 00 09 	l.bf 501c <start_input_tga+0x1fc>
    4ffc:	bc 03 00 04 	l.sfeqi r3,0x4
    5000:	10 00 00 07 	l.bf 501c <start_input_tga+0x1fc>
    5004:	bc 03 00 02 	l.sfeqi r3,0x2
    5008:	0c 00 00 09 	l.bnf 502c <start_input_tga+0x20c>
    500c:	9c 80 04 09 	l.addi r4,r0,0x409
    5010:	18 60 00 00 	l.movhi r3,0x0
    5014:	00 00 00 04 	l.j 5024 <start_input_tga+0x204>
    5018:	a8 63 4b 20 	l.ori r3,r3,0x4b20
    501c:	18 60 00 00 	l.movhi r3,0x0
    5020:	a8 63 4b d0 	l.ori r3,r3,0x4bd0
    5024:	00 00 00 07 	l.j 5040 <start_input_tga+0x220>
    5028:	d4 0e 18 3c 	l.sw 0x3c(r14),r3
    502c:	84 62 00 00 	l.lwz r3,0x0(r2)
    5030:	d4 03 20 14 	l.sw 0x14(r3),r4
    5034:	84 83 00 00 	l.lwz r4,0x0(r3)
    5038:	48 00 20 00 	l.jalr r4
    503c:	a8 62 00 00 	l.ori r3,r2,0x0
    5040:	84 62 00 00 	l.lwz r3,0x0(r2)
    5044:	9c 80 04 0b 	l.addi r4,r0,0x40b
    5048:	d4 03 a0 18 	l.sw 0x18(r3),r20
    504c:	d4 03 20 14 	l.sw 0x14(r3),r4
    5050:	84 62 00 00 	l.lwz r3,0x0(r2)
    5054:	9c 80 00 01 	l.addi r4,r0,0x1
    5058:	d4 03 90 1c 	l.sw 0x1c(r3),r18
    505c:	84 62 00 00 	l.lwz r3,0x0(r2)
    5060:	84 a3 00 04 	l.lwz r5,0x4(r3)
    5064:	48 00 28 00 	l.jalr r5
    5068:	a8 62 00 00 	l.ori r3,r2,0x0
    506c:	00 00 00 25 	l.j 5100 <start_input_tga+0x2e0>
    5070:	9e c0 00 03 	l.addi r22,r0,0x3
    5074:	9c 60 00 01 	l.addi r3,r0,0x1
    5078:	d4 02 18 24 	l.sw 0x24(r2),r3
    507c:	84 6e 00 30 	l.lwz r3,0x30(r14)
    5080:	bc 23 00 01 	l.sfnei r3,0x1
    5084:	10 00 00 06 	l.bf 509c <start_input_tga+0x27c>
    5088:	9c 80 04 09 	l.addi r4,r0,0x409
    508c:	18 60 00 00 	l.movhi r3,0x0
    5090:	a8 63 4a 18 	l.ori r3,r3,0x4a18
    5094:	00 00 00 07 	l.j 50b0 <start_input_tga+0x290>
    5098:	d4 0e 18 3c 	l.sw 0x3c(r14),r3
    509c:	84 62 00 00 	l.lwz r3,0x0(r2)
    50a0:	d4 03 20 14 	l.sw 0x14(r3),r4
    50a4:	84 83 00 00 	l.lwz r4,0x0(r3)
    50a8:	48 00 20 00 	l.jalr r4
    50ac:	a8 62 00 00 	l.ori r3,r2,0x0
    50b0:	84 62 00 00 	l.lwz r3,0x0(r2)
    50b4:	9c 80 04 0c 	l.addi r4,r0,0x40c
    50b8:	d4 03 a0 18 	l.sw 0x18(r3),r20
    50bc:	d4 03 20 14 	l.sw 0x14(r3),r4
    50c0:	84 62 00 00 	l.lwz r3,0x0(r2)
    50c4:	9c 80 00 01 	l.addi r4,r0,0x1
    50c8:	d4 03 90 1c 	l.sw 0x1c(r3),r18
    50cc:	9e c0 00 01 	l.addi r22,r0,0x1
    50d0:	84 62 00 00 	l.lwz r3,0x0(r2)
    50d4:	84 a3 00 04 	l.lwz r5,0x4(r3)
    50d8:	48 00 28 00 	l.jalr r5
    50dc:	a8 62 00 00 	l.ori r3,r2,0x0
    50e0:	00 00 00 09 	l.j 5104 <start_input_tga+0x2e4>
    50e4:	bc 3c 00 00 	l.sfnei r28,0x0
    50e8:	84 62 00 00 	l.lwz r3,0x0(r2)
    50ec:	d4 03 20 14 	l.sw 0x14(r3),r4
    50f0:	84 83 00 00 	l.lwz r4,0x0(r3)
    50f4:	48 00 20 00 	l.jalr r4
    50f8:	a8 62 00 00 	l.ori r3,r2,0x0
    50fc:	9e c0 00 03 	l.addi r22,r0,0x3
    5100:	bc 3c 00 00 	l.sfnei r28,0x0
    5104:	84 62 00 04 	l.lwz r3,0x4(r2)
    5108:	10 00 00 15 	l.bf 515c <start_input_tga+0x33c>
    510c:	e0 d6 a3 06 	l.mul r6,r22,r20
    5110:	9c 80 00 01 	l.addi r4,r0,0x1
    5114:	85 63 00 10 	l.lwz r11,0x10(r3)
    5118:	a8 bc 00 00 	l.ori r5,r28,0x0
    511c:	a8 62 00 00 	l.ori r3,r2,0x0
    5120:	a8 f2 00 00 	l.ori r7,r18,0x0
    5124:	48 00 58 00 	l.jalr r11
    5128:	a9 04 00 00 	l.ori r8,r4,0x0
    512c:	84 62 00 08 	l.lwz r3,0x8(r2)
    5130:	bc 03 00 00 	l.sfeqi r3,0x0
    5134:	10 00 00 05 	l.bf 5148 <start_input_tga+0x328>
    5138:	d4 0e 58 20 	l.sw 0x20(r14),r11
    513c:	84 83 00 18 	l.lwz r4,0x18(r3)
    5140:	9c 84 00 01 	l.addi r4,r4,0x1
    5144:	d4 03 20 18 	l.sw 0x18(r3),r4
    5148:	9c 60 00 01 	l.addi r3,r0,0x1
    514c:	d4 0e 18 14 	l.sw 0x14(r14),r3
    5150:	18 60 00 00 	l.movhi r3,0x0
    5154:	00 00 00 0e 	l.j 518c <start_input_tga+0x36c>
    5158:	a8 63 4c a4 	l.ori r3,r3,0x4ca4
    515c:	9c 80 00 00 	l.addi r4,r0,0x0
    5160:	85 63 00 08 	l.lwz r11,0x8(r3)
    5164:	d4 0e 20 20 	l.sw 0x20(r14),r4
    5168:	9c 80 00 01 	l.addi r4,r0,0x1
    516c:	a8 62 00 00 	l.ori r3,r2,0x0
    5170:	a8 a6 00 00 	l.ori r5,r6,0x0
    5174:	48 00 58 00 	l.jalr r11
    5178:	a8 c4 00 00 	l.ori r6,r4,0x0
    517c:	9c 60 00 01 	l.addi r3,r0,0x1
    5180:	d4 0e 58 10 	l.sw 0x10(r14),r11
    5184:	d4 0e 18 14 	l.sw 0x14(r14),r3
    5188:	84 6e 00 3c 	l.lwz r3,0x3c(r14)
    518c:	d4 0e 18 04 	l.sw 0x4(r14),r3
    5190:	00 00 00 04 	l.j 51a0 <start_input_tga+0x380>
    5194:	aa 1e 00 00 	l.ori r16,r30,0x0
    5198:	07 ff fe fc 	l.jal 4d88 <read_byte>
    519c:	9e 10 ff ff 	l.addi r16,r16,0xffffffff
    51a0:	bc 30 00 00 	l.sfnei r16,0x0
    51a4:	13 ff ff fd 	l.bf 5198 <start_input_tga+0x378>
    51a8:	a8 6e 00 00 	l.ori r3,r14,0x0
    51ac:	bc 18 00 00 	l.sfeqi r24,0x0
    51b0:	10 00 00 3d 	l.bf 52a4 <start_input_tga+0x484>
    51b4:	bc 1a 00 00 	l.sfeqi r26,0x0
    51b8:	bc 58 01 00 	l.sfgtui r24,0x100
    51bc:	10 00 00 08 	l.bf 51dc <start_input_tga+0x3bc>
    51c0:	8c 81 00 03 	l.lbz r4,0x3(r1)
    51c4:	8c 61 00 04 	l.lbz r3,0x4(r1)
    51c8:	b8 63 00 08 	l.slli r3,r3,0x8
    51cc:	e0 63 20 00 	l.add r3,r3,r4
    51d0:	bc 03 00 00 	l.sfeqi r3,0x0
    51d4:	10 00 00 08 	l.bf 51f4 <start_input_tga+0x3d4>
    51d8:	15 00 00 00 	l.nop 0x0
    51dc:	84 62 00 00 	l.lwz r3,0x0(r2)
    51e0:	9c 80 04 08 	l.addi r4,r0,0x408
    51e4:	d4 03 20 14 	l.sw 0x14(r3),r4
    51e8:	84 83 00 00 	l.lwz r4,0x0(r3)
    51ec:	48 00 20 00 	l.jalr r4
    51f0:	a8 62 00 00 	l.ori r3,r2,0x0
    51f4:	84 62 00 04 	l.lwz r3,0x4(r2)
    51f8:	9c 80 00 01 	l.addi r4,r0,0x1
    51fc:	85 63 00 08 	l.lwz r11,0x8(r3)
    5200:	a8 b8 00 00 	l.ori r5,r24,0x0
    5204:	a8 62 00 00 	l.ori r3,r2,0x0
    5208:	48 00 58 00 	l.jalr r11
    520c:	9c c0 00 03 	l.addi r6,r0,0x3
    5210:	8c 61 00 07 	l.lbz r3,0x7(r1)
    5214:	bc 03 00 18 	l.sfeqi r3,0x18
    5218:	10 00 00 09 	l.bf 523c <start_input_tga+0x41c>
    521c:	d4 0e 58 1c 	l.sw 0x1c(r14),r11
    5220:	84 6e 00 18 	l.lwz r3,0x18(r14)
    5224:	9c a0 04 08 	l.addi r5,r0,0x408
    5228:	84 83 00 00 	l.lwz r4,0x0(r3)
    522c:	d4 04 28 14 	l.sw 0x14(r4),r5
    5230:	84 84 00 00 	l.lwz r4,0x0(r4)
    5234:	48 00 20 00 	l.jalr r4
    5238:	15 00 00 00 	l.nop 0x0
    523c:	00 00 00 15 	l.j 5290 <start_input_tga+0x470>
    5240:	9e 00 00 00 	l.addi r16,r0,0x0
    5244:	84 6e 00 1c 	l.lwz r3,0x1c(r14)
    5248:	87 43 00 08 	l.lwz r26,0x8(r3)
    524c:	a8 6e 00 00 	l.ori r3,r14,0x0
    5250:	07 ff fe ce 	l.jal 4d88 <read_byte>
    5254:	e3 5a 80 00 	l.add r26,r26,r16
    5258:	d8 1a 58 00 	l.sb 0x0(r26),r11
    525c:	84 6e 00 1c 	l.lwz r3,0x1c(r14)
    5260:	87 43 00 04 	l.lwz r26,0x4(r3)
    5264:	a8 6e 00 00 	l.ori r3,r14,0x0
    5268:	07 ff fe c8 	l.jal 4d88 <read_byte>
    526c:	e3 5a 80 00 	l.add r26,r26,r16
    5270:	d8 1a 58 00 	l.sb 0x0(r26),r11
    5274:	84 6e 00 1c 	l.lwz r3,0x1c(r14)
    5278:	87 43 00 00 	l.lwz r26,0x0(r3)
    527c:	a8 6e 00 00 	l.ori r3,r14,0x0
    5280:	07 ff fe c2 	l.jal 4d88 <read_byte>
    5284:	e3 5a 80 00 	l.add r26,r26,r16
    5288:	9e 10 00 01 	l.addi r16,r16,0x1
    528c:	d8 1a 58 00 	l.sb 0x0(r26),r11
    5290:	e5 90 c0 00 	l.sflts r16,r24
    5294:	13 ff ff ec 	l.bf 5244 <start_input_tga+0x424>
    5298:	9c 60 00 08 	l.addi r3,r0,0x8
    529c:	00 00 00 0d 	l.j 52d0 <start_input_tga+0x4b0>
    52a0:	d4 02 b0 20 	l.sw 0x20(r2),r22
    52a4:	10 00 00 07 	l.bf 52c0 <start_input_tga+0x4a0>
    52a8:	9c 80 04 09 	l.addi r4,r0,0x409
    52ac:	84 62 00 00 	l.lwz r3,0x0(r2)
    52b0:	d4 03 20 14 	l.sw 0x14(r3),r4
    52b4:	84 83 00 00 	l.lwz r4,0x0(r3)
    52b8:	48 00 20 00 	l.jalr r4
    52bc:	a8 62 00 00 	l.ori r3,r2,0x0
    52c0:	9c 60 00 00 	l.addi r3,r0,0x0
    52c4:	d4 0e 18 1c 	l.sw 0x1c(r14),r3
    52c8:	9c 60 00 08 	l.addi r3,r0,0x8
    52cc:	d4 02 b0 20 	l.sw 0x20(r2),r22
    52d0:	d4 02 a0 18 	l.sw 0x18(r2),r20
    52d4:	d4 02 90 1c 	l.sw 0x1c(r2),r18
    52d8:	d4 02 18 30 	l.sw 0x30(r2),r3
    52dc:	9c 21 00 40 	l.addi r1,r1,0x40
    52e0:	85 21 ff fc 	l.lwz r9,0xfffffffc(r1)
    52e4:	84 41 ff d4 	l.lwz r2,0xffffffd4(r1)
    52e8:	85 c1 ff d8 	l.lwz r14,0xffffffd8(r1)
    52ec:	86 01 ff dc 	l.lwz r16,0xffffffdc(r1)
    52f0:	86 41 ff e0 	l.lwz r18,0xffffffe0(r1)
    52f4:	86 81 ff e4 	l.lwz r20,0xffffffe4(r1)
    52f8:	86 c1 ff e8 	l.lwz r22,0xffffffe8(r1)
    52fc:	87 01 ff ec 	l.lwz r24,0xffffffec(r1)
    5300:	87 41 ff f0 	l.lwz r26,0xfffffff0(r1)
    5304:	87 81 ff f4 	l.lwz r28,0xfffffff4(r1)
    5308:	44 00 48 00 	l.jr r9
    530c:	87 c1 ff f8 	l.lwz r30,0xfffffff8(r1)

00005310 <read_non_rle_pixel>:
    5310:	d7 e1 a7 f8 	l.sw 0xfffffff8(r1),r20
    5314:	1a 80 00 02 	l.movhi r20,0x2
    5318:	d7 e1 17 e8 	l.sw 0xffffffe8(r1),r2
    531c:	d7 e1 77 ec 	l.sw 0xffffffec(r1),r14
    5320:	d7 e1 87 f0 	l.sw 0xfffffff0(r1),r16
    5324:	d7 e1 97 f4 	l.sw 0xfffffff4(r1),r18
    5328:	d7 e1 4f fc 	l.sw 0xfffffffc(r1),r9
    532c:	a9 c3 00 00 	l.ori r14,r3,0x0
    5330:	9c 21 ff e8 	l.addi r1,r1,0xffffffe8
    5334:	84 43 00 0c 	l.lwz r2,0xc(r3)
    5338:	9e 43 00 2c 	l.addi r18,r3,0x2c
    533c:	9e 00 00 00 	l.addi r16,r0,0x0
    5340:	00 00 00 13 	l.j 538c <read_non_rle_pixel+0x7c>
    5344:	aa 94 f7 f4 	l.ori r20,r20,0xf7f4
    5348:	84 62 00 04 	l.lwz r3,0x4(r2)
    534c:	9c 63 ff ff 	l.addi r3,r3,0xffffffff
    5350:	bd 63 00 00 	l.sfgesi r3,0x0
    5354:	10 00 00 07 	l.bf 5370 <read_non_rle_pixel+0x60>
    5358:	d4 02 18 04 	l.sw 0x4(r2),r3
    535c:	84 74 00 00 	l.lwz r3,0x0(r20)
    5360:	04 00 4e 68 	l.jal 18d00 <__srget_r>
    5364:	a8 82 00 00 	l.ori r4,r2,0x0
    5368:	00 00 00 06 	l.j 5380 <read_non_rle_pixel+0x70>
    536c:	a5 6b 00 ff 	l.andi r11,r11,0xff
    5370:	84 62 00 00 	l.lwz r3,0x0(r2)
    5374:	8d 63 00 00 	l.lbz r11,0x0(r3)
    5378:	9c 63 00 01 	l.addi r3,r3,0x1
    537c:	d4 02 18 00 	l.sw 0x0(r2),r3
    5380:	d8 12 58 00 	l.sb 0x0(r18),r11
    5384:	9e 10 00 01 	l.addi r16,r16,0x1
    5388:	9e 52 00 01 	l.addi r18,r18,0x1
    538c:	84 6e 00 30 	l.lwz r3,0x30(r14)
    5390:	e5 90 18 00 	l.sflts r16,r3
    5394:	13 ff ff ed 	l.bf 5348 <read_non_rle_pixel+0x38>
    5398:	15 00 00 00 	l.nop 0x0
    539c:	9c 21 00 18 	l.addi r1,r1,0x18
    53a0:	85 21 ff fc 	l.lwz r9,0xfffffffc(r1)
    53a4:	84 41 ff e8 	l.lwz r2,0xffffffe8(r1)
    53a8:	85 c1 ff ec 	l.lwz r14,0xffffffec(r1)
    53ac:	86 01 ff f0 	l.lwz r16,0xfffffff0(r1)
    53b0:	86 41 ff f4 	l.lwz r18,0xfffffff4(r1)
    53b4:	44 00 48 00 	l.jr r9
    53b8:	86 81 ff f8 	l.lwz r20,0xfffffff8(r1)

000053bc <read_rle_pixel>:
    53bc:	d7 e1 17 e8 	l.sw 0xffffffe8(r1),r2
    53c0:	d7 e1 77 ec 	l.sw 0xffffffec(r1),r14
    53c4:	d7 e1 4f fc 	l.sw 0xfffffffc(r1),r9
    53c8:	d7 e1 87 f0 	l.sw 0xfffffff0(r1),r16
    53cc:	d7 e1 97 f4 	l.sw 0xfffffff4(r1),r18
    53d0:	d7 e1 a7 f8 	l.sw 0xfffffff8(r1),r20
    53d4:	84 83 00 38 	l.lwz r4,0x38(r3)
    53d8:	9c 21 ff e8 	l.addi r1,r1,0xffffffe8
    53dc:	a8 43 00 00 	l.ori r2,r3,0x0
    53e0:	bd a4 00 00 	l.sflesi r4,0x0
    53e4:	10 00 00 05 	l.bf 53f8 <read_rle_pixel+0x3c>
    53e8:	85 c3 00 0c 	l.lwz r14,0xc(r3)
    53ec:	9c 84 ff ff 	l.addi r4,r4,0xffffffff
    53f0:	00 00 00 2c 	l.j 54a0 <read_rle_pixel+0xe4>
    53f4:	d4 03 20 38 	l.sw 0x38(r3),r4
    53f8:	84 83 00 34 	l.lwz r4,0x34(r3)
    53fc:	9c 84 ff ff 	l.addi r4,r4,0xffffffff
    5400:	bd 64 00 00 	l.sfgesi r4,0x0
    5404:	10 00 00 0b 	l.bf 5430 <read_rle_pixel+0x74>
    5408:	d4 03 20 34 	l.sw 0x34(r3),r4
    540c:	07 ff fe 5f 	l.jal 4d88 <read_byte>
    5410:	15 00 00 00 	l.nop 0x0
    5414:	a4 6b 00 80 	l.andi r3,r11,0x80
    5418:	bc 03 00 00 	l.sfeqi r3,0x0
    541c:	10 00 00 0a 	l.bf 5444 <read_rle_pixel+0x88>
    5420:	a5 6b 00 7f 	l.andi r11,r11,0x7f
    5424:	9c 60 00 00 	l.addi r3,r0,0x0
    5428:	d4 02 58 38 	l.sw 0x38(r2),r11
    542c:	d4 02 18 34 	l.sw 0x34(r2),r3
    5430:	1a 80 00 02 	l.movhi r20,0x2
    5434:	9e 42 00 2c 	l.addi r18,r2,0x2c
    5438:	9e 00 00 00 	l.addi r16,r0,0x0
    543c:	00 00 00 15 	l.j 5490 <read_rle_pixel+0xd4>
    5440:	aa 94 f7 f4 	l.ori r20,r20,0xf7f4
    5444:	03 ff ff fb 	l.j 5430 <read_rle_pixel+0x74>
    5448:	d4 02 58 34 	l.sw 0x34(r2),r11
    544c:	84 6e 00 04 	l.lwz r3,0x4(r14)
    5450:	9c 63 ff ff 	l.addi r3,r3,0xffffffff
    5454:	bd 63 00 00 	l.sfgesi r3,0x0
    5458:	10 00 00 07 	l.bf 5474 <read_rle_pixel+0xb8>
    545c:	d4 0e 18 04 	l.sw 0x4(r14),r3
    5460:	84 74 00 00 	l.lwz r3,0x0(r20)
    5464:	04 00 4e 27 	l.jal 18d00 <__srget_r>
    5468:	a8 8e 00 00 	l.ori r4,r14,0x0
    546c:	00 00 00 06 	l.j 5484 <read_rle_pixel+0xc8>
    5470:	a5 6b 00 ff 	l.andi r11,r11,0xff
    5474:	84 6e 00 00 	l.lwz r3,0x0(r14)
    5478:	8d 63 00 00 	l.lbz r11,0x0(r3)
    547c:	9c 63 00 01 	l.addi r3,r3,0x1
    5480:	d4 0e 18 00 	l.sw 0x0(r14),r3
    5484:	d8 12 58 00 	l.sb 0x0(r18),r11
    5488:	9e 10 00 01 	l.addi r16,r16,0x1
    548c:	9e 52 00 01 	l.addi r18,r18,0x1
    5490:	84 62 00 30 	l.lwz r3,0x30(r2)
    5494:	e5 90 18 00 	l.sflts r16,r3
    5498:	13 ff ff ed 	l.bf 544c <read_rle_pixel+0x90>
    549c:	15 00 00 00 	l.nop 0x0
    54a0:	9c 21 00 18 	l.addi r1,r1,0x18
    54a4:	85 21 ff fc 	l.lwz r9,0xfffffffc(r1)
    54a8:	84 41 ff e8 	l.lwz r2,0xffffffe8(r1)
    54ac:	85 c1 ff ec 	l.lwz r14,0xffffffec(r1)
    54b0:	86 01 ff f0 	l.lwz r16,0xfffffff0(r1)
    54b4:	86 41 ff f4 	l.lwz r18,0xfffffff4(r1)
    54b8:	44 00 48 00 	l.jr r9
    54bc:	86 81 ff f8 	l.lwz r20,0xfffffff8(r1)

000054c0 <jinit_read_targa>:
    54c0:	84 83 00 04 	l.lwz r4,0x4(r3)
    54c4:	d7 e1 4f fc 	l.sw 0xfffffffc(r1),r9
    54c8:	d7 e1 17 f8 	l.sw 0xfffffff8(r1),r2
    54cc:	85 64 00 00 	l.lwz r11,0x0(r4)
    54d0:	a8 43 00 00 	l.ori r2,r3,0x0
    54d4:	9c 21 ff f8 	l.addi r1,r1,0xfffffff8
    54d8:	9c 80 00 01 	l.addi r4,r0,0x1
    54dc:	48 00 58 00 	l.jalr r11
    54e0:	9c a0 00 40 	l.addi r5,r0,0x40
    54e4:	d4 0b 10 18 	l.sw 0x18(r11),r2
    54e8:	18 40 00 00 	l.movhi r2,0x0
    54ec:	a8 42 4e 20 	l.ori r2,r2,0x4e20
    54f0:	d4 0b 10 00 	l.sw 0x0(r11),r2
    54f4:	18 40 00 00 	l.movhi r2,0x0
    54f8:	a8 42 4d 80 	l.ori r2,r2,0x4d80
    54fc:	d4 0b 10 08 	l.sw 0x8(r11),r2
    5500:	9c 21 00 08 	l.addi r1,r1,0x8
    5504:	85 21 ff fc 	l.lwz r9,0xfffffffc(r1)
    5508:	44 00 48 00 	l.jr r9
    550c:	84 41 ff f8 	l.lwz r2,0xfffffff8(r1)

00005510 <get_8bit_row>:
    5510:	84 a4 00 24 	l.lwz r5,0x24(r4)
    5514:	d7 e1 17 f0 	l.sw 0xfffffff0(r1),r2
    5518:	9c a5 ff ff 	l.addi r5,r5,0xffffffff
    551c:	d7 e1 77 f4 	l.sw 0xfffffff4(r1),r14
    5520:	d7 e1 87 f8 	l.sw 0xfffffff8(r1),r16
    5524:	d7 e1 4f fc 	l.sw 0xfffffffc(r1),r9
    5528:	a8 44 00 00 	l.ori r2,r4,0x0
    552c:	85 c4 00 1c 	l.lwz r14,0x1c(r4)
    5530:	d4 04 28 24 	l.sw 0x24(r4),r5
    5534:	84 83 00 04 	l.lwz r4,0x4(r3)
    5538:	9c 21 ff f0 	l.addi r1,r1,0xfffffff0
    553c:	85 64 00 1c 	l.lwz r11,0x1c(r4)
    5540:	9c c0 00 01 	l.addi r6,r0,0x1
    5544:	84 82 00 20 	l.lwz r4,0x20(r2)
    5548:	9c e0 00 00 	l.addi r7,r0,0x0
    554c:	48 00 58 00 	l.jalr r11
    5550:	aa 03 00 00 	l.ori r16,r3,0x0
    5554:	84 42 00 10 	l.lwz r2,0x10(r2)
    5558:	84 8b 00 00 	l.lwz r4,0x0(r11)
    555c:	84 42 00 00 	l.lwz r2,0x0(r2)
    5560:	00 00 00 12 	l.j 55a8 <get_8bit_row+0x98>
    5564:	84 70 00 18 	l.lwz r3,0x18(r16)
    5568:	8c a4 00 00 	l.lbz r5,0x0(r4)
    556c:	84 ce 00 00 	l.lwz r6,0x0(r14)
    5570:	9c 84 00 01 	l.addi r4,r4,0x1
    5574:	e0 c6 28 00 	l.add r6,r6,r5
    5578:	9c 63 ff ff 	l.addi r3,r3,0xffffffff
    557c:	8c c6 00 00 	l.lbz r6,0x0(r6)
    5580:	d8 02 30 00 	l.sb 0x0(r2),r6
    5584:	84 ce 00 04 	l.lwz r6,0x4(r14)
    5588:	e0 c6 28 00 	l.add r6,r6,r5
    558c:	8c c6 00 00 	l.lbz r6,0x0(r6)
    5590:	d8 02 30 01 	l.sb 0x1(r2),r6
    5594:	84 ce 00 08 	l.lwz r6,0x8(r14)
    5598:	e0 a6 28 00 	l.add r5,r6,r5
    559c:	8c a5 00 00 	l.lbz r5,0x0(r5)
    55a0:	d8 02 28 02 	l.sb 0x2(r2),r5
    55a4:	9c 42 00 03 	l.addi r2,r2,0x3
    55a8:	bc 23 00 00 	l.sfnei r3,0x0
    55ac:	13 ff ff ef 	l.bf 5568 <get_8bit_row+0x58>
    55b0:	9d 60 00 01 	l.addi r11,r0,0x1
    55b4:	9c 21 00 10 	l.addi r1,r1,0x10
    55b8:	85 21 ff fc 	l.lwz r9,0xfffffffc(r1)
    55bc:	84 41 ff f0 	l.lwz r2,0xfffffff0(r1)
    55c0:	85 c1 ff f4 	l.lwz r14,0xfffffff4(r1)
    55c4:	44 00 48 00 	l.jr r9
    55c8:	86 01 ff f8 	l.lwz r16,0xfffffff8(r1)

000055cc <get_24bit_row>:
    55cc:	84 a4 00 24 	l.lwz r5,0x24(r4)
    55d0:	d7 e1 17 f4 	l.sw 0xfffffff4(r1),r2
    55d4:	9c a5 ff ff 	l.addi r5,r5,0xffffffff
    55d8:	d7 e1 77 f8 	l.sw 0xfffffff8(r1),r14
    55dc:	d7 e1 4f fc 	l.sw 0xfffffffc(r1),r9
    55e0:	a8 44 00 00 	l.ori r2,r4,0x0
    55e4:	d4 04 28 24 	l.sw 0x24(r4),r5
    55e8:	84 83 00 04 	l.lwz r4,0x4(r3)
    55ec:	9c 21 ff f4 	l.addi r1,r1,0xfffffff4
    55f0:	85 64 00 1c 	l.lwz r11,0x1c(r4)
    55f4:	9c c0 00 01 	l.addi r6,r0,0x1
    55f8:	84 82 00 20 	l.lwz r4,0x20(r2)
    55fc:	9c e0 00 00 	l.addi r7,r0,0x0
    5600:	48 00 58 00 	l.jalr r11
    5604:	a9 c3 00 00 	l.ori r14,r3,0x0
    5608:	84 42 00 10 	l.lwz r2,0x10(r2)
    560c:	84 ab 00 00 	l.lwz r5,0x0(r11)
    5610:	84 82 00 00 	l.lwz r4,0x0(r2)
    5614:	00 00 00 0a 	l.j 563c <get_24bit_row+0x70>
    5618:	84 4e 00 18 	l.lwz r2,0x18(r14)
    561c:	8c 65 00 00 	l.lbz r3,0x0(r5)
    5620:	d8 04 18 02 	l.sb 0x2(r4),r3
    5624:	8c 65 00 01 	l.lbz r3,0x1(r5)
    5628:	d8 04 18 01 	l.sb 0x1(r4),r3
    562c:	8c 65 00 02 	l.lbz r3,0x2(r5)
    5630:	9c a5 00 03 	l.addi r5,r5,0x3
    5634:	d8 04 18 00 	l.sb 0x0(r4),r3
    5638:	9c 84 00 03 	l.addi r4,r4,0x3
    563c:	bc 22 00 00 	l.sfnei r2,0x0
    5640:	13 ff ff f7 	l.bf 561c <get_24bit_row+0x50>
    5644:	9c 42 ff ff 	l.addi r2,r2,0xffffffff
    5648:	9c 21 00 0c 	l.addi r1,r1,0xc
    564c:	9d 60 00 01 	l.addi r11,r0,0x1
    5650:	85 21 ff fc 	l.lwz r9,0xfffffffc(r1)
    5654:	84 41 ff f4 	l.lwz r2,0xfffffff4(r1)
    5658:	44 00 48 00 	l.jr r9
    565c:	85 c1 ff f8 	l.lwz r14,0xfffffff8(r1)

00005660 <finish_input_bmp>:
    5660:	44 00 48 00 	l.jr r9
    5664:	15 00 00 00 	l.nop 0x0

00005668 <read_byte>:
    5668:	84 83 00 0c 	l.lwz r4,0xc(r3)
    566c:	d7 e1 17 f4 	l.sw 0xfffffff4(r1),r2
    5670:	84 44 00 04 	l.lwz r2,0x4(r4)
    5674:	d7 e1 77 f8 	l.sw 0xfffffff8(r1),r14
    5678:	9c 42 ff ff 	l.addi r2,r2,0xffffffff
    567c:	d7 e1 4f fc 	l.sw 0xfffffffc(r1),r9
    5680:	d4 04 10 04 	l.sw 0x4(r4),r2
    5684:	9c 21 ff f4 	l.addi r1,r1,0xfffffff4
    5688:	bd 62 00 00 	l.sfgesi r2,0x0
    568c:	10 00 00 0b 	l.bf 56b8 <read_byte+0x50>
    5690:	a9 c3 00 00 	l.ori r14,r3,0x0
    5694:	18 40 00 02 	l.movhi r2,0x2
    5698:	a8 42 f7 f4 	l.ori r2,r2,0xf7f4
    569c:	04 00 4d 99 	l.jal 18d00 <__srget_r>
    56a0:	84 62 00 00 	l.lwz r3,0x0(r2)
    56a4:	bc 0b ff ff 	l.sfeqi r11,0xffffffff
    56a8:	10 00 00 09 	l.bf 56cc <read_byte+0x64>
    56ac:	a8 4b 00 00 	l.ori r2,r11,0x0
    56b0:	00 00 00 0f 	l.j 56ec <read_byte+0x84>
    56b4:	9c 21 00 0c 	l.addi r1,r1,0xc
    56b8:	84 64 00 00 	l.lwz r3,0x0(r4)
    56bc:	8c 43 00 00 	l.lbz r2,0x0(r3)
    56c0:	9c 63 00 01 	l.addi r3,r3,0x1
    56c4:	00 00 00 09 	l.j 56e8 <read_byte+0x80>
    56c8:	d4 04 18 00 	l.sw 0x0(r4),r3
    56cc:	84 6e 00 18 	l.lwz r3,0x18(r14)
    56d0:	9c a0 00 2a 	l.addi r5,r0,0x2a
    56d4:	84 83 00 00 	l.lwz r4,0x0(r3)
    56d8:	d4 04 28 14 	l.sw 0x14(r4),r5
    56dc:	84 84 00 00 	l.lwz r4,0x0(r4)
    56e0:	48 00 20 00 	l.jalr r4
    56e4:	15 00 00 00 	l.nop 0x0
    56e8:	9c 21 00 0c 	l.addi r1,r1,0xc
    56ec:	a9 62 00 00 	l.ori r11,r2,0x0
    56f0:	85 21 ff fc 	l.lwz r9,0xfffffffc(r1)
    56f4:	84 41 ff f4 	l.lwz r2,0xfffffff4(r1)
    56f8:	44 00 48 00 	l.jr r9
    56fc:	85 c1 ff f8 	l.lwz r14,0xfffffff8(r1)

00005700 <start_input_bmp>:
    5700:	d7 e1 17 d4 	l.sw 0xffffffd4(r1),r2
    5704:	d7 e1 77 d8 	l.sw 0xffffffd8(r1),r14
    5708:	d7 e1 4f fc 	l.sw 0xfffffffc(r1),r9
    570c:	d7 e1 87 dc 	l.sw 0xffffffdc(r1),r16
    5710:	d7 e1 97 e0 	l.sw 0xffffffe0(r1),r18
    5714:	d7 e1 a7 e4 	l.sw 0xffffffe4(r1),r20
    5718:	d7 e1 b7 e8 	l.sw 0xffffffe8(r1),r22
    571c:	d7 e1 c7 ec 	l.sw 0xffffffec(r1),r24
    5720:	d7 e1 d7 f0 	l.sw 0xfffffff0(r1),r26
    5724:	d7 e1 e7 f4 	l.sw 0xfffffff4(r1),r28
    5728:	d7 e1 f7 f8 	l.sw 0xfffffff8(r1),r30
    572c:	a9 c4 00 00 	l.ori r14,r4,0x0
    5730:	9c 21 ff 70 	l.addi r1,r1,0xffffff70
    5734:	a8 43 00 00 	l.ori r2,r3,0x0
    5738:	9c 80 00 01 	l.addi r4,r0,0x1
    573c:	9c 61 00 54 	l.addi r3,r1,0x54
    5740:	9c a0 00 0e 	l.addi r5,r0,0xe
    5744:	04 00 3f e2 	l.jal 156cc <fread>
    5748:	84 ce 00 0c 	l.lwz r6,0xc(r14)
    574c:	bc 0b 00 0e 	l.sfeqi r11,0xe
    5750:	10 00 00 07 	l.bf 576c <start_input_bmp+0x6c>
    5754:	9c 80 00 2a 	l.addi r4,r0,0x2a
    5758:	84 62 00 00 	l.lwz r3,0x0(r2)
    575c:	d4 03 20 14 	l.sw 0x14(r3),r4
    5760:	84 83 00 00 	l.lwz r4,0x0(r3)
    5764:	48 00 20 00 	l.jalr r4
    5768:	a8 62 00 00 	l.ori r3,r2,0x0
    576c:	8c 61 00 55 	l.lbz r3,0x55(r1)
    5770:	8c 81 00 54 	l.lbz r4,0x54(r1)
    5774:	b8 63 00 08 	l.slli r3,r3,0x8
    5778:	e0 63 20 00 	l.add r3,r3,r4
    577c:	bc 03 4d 42 	l.sfeqi r3,0x4d42
    5780:	10 00 00 07 	l.bf 579c <start_input_bmp+0x9c>
    5784:	9c 80 03 ef 	l.addi r4,r0,0x3ef
    5788:	84 62 00 00 	l.lwz r3,0x0(r2)
    578c:	d4 03 20 14 	l.sw 0x14(r3),r4
    5790:	84 83 00 00 	l.lwz r4,0x0(r3)
    5794:	48 00 20 00 	l.jalr r4
    5798:	a8 62 00 00 	l.ori r3,r2,0x0
    579c:	8c 61 00 5e 	l.lbz r3,0x5e(r1)
    57a0:	d4 01 18 00 	l.sw 0x0(r1),r3
    57a4:	8c 61 00 5f 	l.lbz r3,0x5f(r1)
    57a8:	b8 63 00 08 	l.slli r3,r3,0x8
    57ac:	8f 01 00 61 	l.lbz r24,0x61(r1)
    57b0:	d4 01 18 04 	l.sw 0x4(r1),r3
    57b4:	8c 61 00 60 	l.lbz r3,0x60(r1)
    57b8:	b8 63 00 10 	l.slli r3,r3,0x10
    57bc:	9c 80 00 01 	l.addi r4,r0,0x1
    57c0:	9c a0 00 04 	l.addi r5,r0,0x4
    57c4:	d4 01 18 08 	l.sw 0x8(r1),r3
    57c8:	84 ce 00 0c 	l.lwz r6,0xc(r14)
    57cc:	9c 61 00 14 	l.addi r3,r1,0x14
    57d0:	04 00 3f bf 	l.jal 156cc <fread>
    57d4:	bb 18 00 18 	l.slli r24,r24,0x18
    57d8:	bc 0b 00 04 	l.sfeqi r11,0x4
    57dc:	10 00 00 07 	l.bf 57f8 <start_input_bmp+0xf8>
    57e0:	9c 80 00 2a 	l.addi r4,r0,0x2a
    57e4:	84 62 00 00 	l.lwz r3,0x0(r2)
    57e8:	d4 03 20 14 	l.sw 0x14(r3),r4
    57ec:	84 83 00 00 	l.lwz r4,0x0(r3)
    57f0:	48 00 20 00 	l.jalr r4
    57f4:	a8 62 00 00 	l.ori r3,r2,0x0
    57f8:	8f 41 00 15 	l.lbz r26,0x15(r1)
    57fc:	8c 61 00 16 	l.lbz r3,0x16(r1)
    5800:	bb 5a 00 08 	l.slli r26,r26,0x8
    5804:	b8 63 00 10 	l.slli r3,r3,0x10
    5808:	e3 5a 18 00 	l.add r26,r26,r3
    580c:	8c 61 00 14 	l.lbz r3,0x14(r1)
    5810:	e3 5a 18 00 	l.add r26,r26,r3
    5814:	8c 61 00 17 	l.lbz r3,0x17(r1)
    5818:	b8 63 00 18 	l.slli r3,r3,0x18
    581c:	e3 5a 18 00 	l.add r26,r26,r3
    5820:	9c 7a ff f4 	l.addi r3,r26,0xfffffff4
    5824:	bc a3 00 34 	l.sfleui r3,0x34
    5828:	10 00 00 09 	l.bf 584c <start_input_bmp+0x14c>
    582c:	9e 1a ff fc 	l.addi r16,r26,0xfffffffc
    5830:	84 62 00 00 	l.lwz r3,0x0(r2)
    5834:	9c 80 03 eb 	l.addi r4,r0,0x3eb
    5838:	d4 03 20 14 	l.sw 0x14(r3),r4
    583c:	84 83 00 00 	l.lwz r4,0x0(r3)
    5840:	48 00 20 00 	l.jalr r4
    5844:	a8 62 00 00 	l.ori r3,r2,0x0
    5848:	9e 1a ff fc 	l.addi r16,r26,0xfffffffc
    584c:	9c 61 00 18 	l.addi r3,r1,0x18
    5850:	9c 80 00 01 	l.addi r4,r0,0x1
    5854:	a8 b0 00 00 	l.ori r5,r16,0x0
    5858:	04 00 3f 9d 	l.jal 156cc <fread>
    585c:	84 ce 00 0c 	l.lwz r6,0xc(r14)
    5860:	e4 0b 80 00 	l.sfeq r11,r16
    5864:	10 00 00 07 	l.bf 5880 <start_input_bmp+0x180>
    5868:	9c 80 00 2a 	l.addi r4,r0,0x2a
    586c:	84 62 00 00 	l.lwz r3,0x0(r2)
    5870:	d4 03 20 14 	l.sw 0x14(r3),r4
    5874:	84 83 00 00 	l.lwz r4,0x0(r3)
    5878:	48 00 20 00 	l.jalr r4
    587c:	a8 62 00 00 	l.ori r3,r2,0x0
    5880:	bc 1a 00 28 	l.sfeqi r26,0x28
    5884:	10 00 00 48 	l.bf 59a4 <start_input_bmp+0x2a4>
    5888:	bc 1a 00 40 	l.sfeqi r26,0x40
    588c:	10 00 00 46 	l.bf 59a4 <start_input_bmp+0x2a4>
    5890:	bc 1a 00 0c 	l.sfeqi r26,0xc
    5894:	0c 00 00 d5 	l.bnf 5be8 <start_input_bmp+0x4e8>
    5898:	9e 40 00 00 	l.addi r18,r0,0x0
    589c:	8e 01 00 19 	l.lbz r16,0x19(r1)
    58a0:	8c 61 00 18 	l.lbz r3,0x18(r1)
    58a4:	ba 10 00 08 	l.slli r16,r16,0x8
    58a8:	8e c1 00 1b 	l.lbz r22,0x1b(r1)
    58ac:	e2 10 18 00 	l.add r16,r16,r3
    58b0:	ba d6 00 08 	l.slli r22,r22,0x8
    58b4:	8c 61 00 1a 	l.lbz r3,0x1a(r1)
    58b8:	8f 81 00 1d 	l.lbz r28,0x1d(r1)
    58bc:	e2 d6 18 00 	l.add r22,r22,r3
    58c0:	bb 9c 00 08 	l.slli r28,r28,0x8
    58c4:	8c 61 00 1c 	l.lbz r3,0x1c(r1)
    58c8:	e3 9c 18 00 	l.add r28,r28,r3
    58cc:	8c 61 00 1f 	l.lbz r3,0x1f(r1)
    58d0:	8c 81 00 1e 	l.lbz r4,0x1e(r1)
    58d4:	b8 63 00 08 	l.slli r3,r3,0x8
    58d8:	e0 63 20 00 	l.add r3,r3,r4
    58dc:	bc 03 00 08 	l.sfeqi r3,0x8
    58e0:	10 00 00 07 	l.bf 58fc <start_input_bmp+0x1fc>
    58e4:	d4 0e 18 2c 	l.sw 0x2c(r14),r3
    58e8:	bc 03 00 18 	l.sfeqi r3,0x18
    58ec:	0c 00 00 1d 	l.bnf 5960 <start_input_bmp+0x260>
    58f0:	84 82 00 00 	l.lwz r4,0x0(r2)
    58f4:	00 00 00 10 	l.j 5934 <start_input_bmp+0x234>
    58f8:	d4 04 80 18 	l.sw 0x18(r4),r16
    58fc:	84 62 00 00 	l.lwz r3,0x0(r2)
    5900:	9c 80 03 f3 	l.addi r4,r0,0x3f3
    5904:	d4 03 80 18 	l.sw 0x18(r3),r16
    5908:	d4 03 20 14 	l.sw 0x14(r3),r4
    590c:	84 62 00 00 	l.lwz r3,0x0(r2)
    5910:	9c 80 00 01 	l.addi r4,r0,0x1
    5914:	d4 03 b0 1c 	l.sw 0x1c(r3),r22
    5918:	9e 40 00 03 	l.addi r18,r0,0x3
    591c:	84 62 00 00 	l.lwz r3,0x0(r2)
    5920:	84 a3 00 04 	l.lwz r5,0x4(r3)
    5924:	48 00 28 00 	l.jalr r5
    5928:	a8 62 00 00 	l.ori r3,r2,0x0
    592c:	00 00 00 14 	l.j 597c <start_input_bmp+0x27c>
    5930:	9e 80 00 00 	l.addi r20,r0,0x0
    5934:	9c 60 03 f2 	l.addi r3,r0,0x3f2
    5938:	d4 04 18 14 	l.sw 0x14(r4),r3
    593c:	84 62 00 00 	l.lwz r3,0x0(r2)
    5940:	9c 80 00 01 	l.addi r4,r0,0x1
    5944:	d4 03 b0 1c 	l.sw 0x1c(r3),r22
    5948:	84 62 00 00 	l.lwz r3,0x0(r2)
    594c:	84 a3 00 04 	l.lwz r5,0x4(r3)
    5950:	48 00 28 00 	l.jalr r5
    5954:	a8 62 00 00 	l.ori r3,r2,0x0
    5958:	00 00 00 08 	l.j 5978 <start_input_bmp+0x278>
    595c:	9e 40 00 00 	l.addi r18,r0,0x0
    5960:	9c 60 03 ea 	l.addi r3,r0,0x3ea
    5964:	d4 04 18 14 	l.sw 0x14(r4),r3
    5968:	84 84 00 00 	l.lwz r4,0x0(r4)
    596c:	48 00 20 00 	l.jalr r4
    5970:	a8 62 00 00 	l.ori r3,r2,0x0
    5974:	9e 40 00 00 	l.addi r18,r0,0x0
    5978:	9e 80 00 00 	l.addi r20,r0,0x0
    597c:	bc 1c 00 01 	l.sfeqi r28,0x1
    5980:	10 00 00 a3 	l.bf 5c0c <start_input_bmp+0x50c>
    5984:	9c 80 03 ec 	l.addi r4,r0,0x3ec
    5988:	84 62 00 00 	l.lwz r3,0x0(r2)
    598c:	d4 03 20 14 	l.sw 0x14(r3),r4
    5990:	84 83 00 00 	l.lwz r4,0x0(r3)
    5994:	48 00 20 00 	l.jalr r4
    5998:	a8 62 00 00 	l.ori r3,r2,0x0
    599c:	00 00 00 9d 	l.j 5c10 <start_input_bmp+0x510>
    59a0:	84 81 00 00 	l.lwz r4,0x0(r1)
    59a4:	8e 01 00 19 	l.lbz r16,0x19(r1)
    59a8:	8c 61 00 1a 	l.lbz r3,0x1a(r1)
    59ac:	ba 10 00 08 	l.slli r16,r16,0x8
    59b0:	b8 63 00 10 	l.slli r3,r3,0x10
    59b4:	8e c1 00 1d 	l.lbz r22,0x1d(r1)
    59b8:	e2 10 18 00 	l.add r16,r16,r3
    59bc:	8c 61 00 18 	l.lbz r3,0x18(r1)
    59c0:	e2 10 18 00 	l.add r16,r16,r3
    59c4:	8c 61 00 1b 	l.lbz r3,0x1b(r1)
    59c8:	b8 63 00 18 	l.slli r3,r3,0x18
    59cc:	ba d6 00 08 	l.slli r22,r22,0x8
    59d0:	8c 81 00 21 	l.lbz r4,0x21(r1)
    59d4:	e2 10 18 00 	l.add r16,r16,r3
    59d8:	8c 61 00 1e 	l.lbz r3,0x1e(r1)
    59dc:	b8 63 00 10 	l.slli r3,r3,0x10
    59e0:	b8 84 00 08 	l.slli r4,r4,0x8
    59e4:	8c a1 00 25 	l.lbz r5,0x25(r1)
    59e8:	e2 d6 18 00 	l.add r22,r22,r3
    59ec:	8c 61 00 1c 	l.lbz r3,0x1c(r1)
    59f0:	e2 d6 18 00 	l.add r22,r22,r3
    59f4:	8c 61 00 1f 	l.lbz r3,0x1f(r1)
    59f8:	b8 63 00 18 	l.slli r3,r3,0x18
    59fc:	b8 a5 00 08 	l.slli r5,r5,0x8
    5a00:	8f c1 00 2d 	l.lbz r30,0x2d(r1)
    5a04:	e2 d6 18 00 	l.add r22,r22,r3
    5a08:	8c 61 00 20 	l.lbz r3,0x20(r1)
    5a0c:	e0 64 18 00 	l.add r3,r4,r3
    5a10:	8c 81 00 23 	l.lbz r4,0x23(r1)
    5a14:	d4 01 18 0c 	l.sw 0xc(r1),r3
    5a18:	b8 84 00 08 	l.slli r4,r4,0x8
    5a1c:	8c 61 00 22 	l.lbz r3,0x22(r1)
    5a20:	e0 84 18 00 	l.add r4,r4,r3
    5a24:	8c 61 00 26 	l.lbz r3,0x26(r1)
    5a28:	b8 63 00 10 	l.slli r3,r3,0x10
    5a2c:	bb de 00 08 	l.slli r30,r30,0x8
    5a30:	8f 81 00 31 	l.lbz r28,0x31(r1)
    5a34:	e0 a5 18 00 	l.add r5,r5,r3
    5a38:	8c 61 00 24 	l.lbz r3,0x24(r1)
    5a3c:	e0 a5 18 00 	l.add r5,r5,r3
    5a40:	8c 61 00 27 	l.lbz r3,0x27(r1)
    5a44:	b8 63 00 18 	l.slli r3,r3,0x18
    5a48:	bb 9c 00 08 	l.slli r28,r28,0x8
    5a4c:	8e 81 00 35 	l.lbz r20,0x35(r1)
    5a50:	e0 65 18 00 	l.add r3,r5,r3
    5a54:	ba 94 00 08 	l.slli r20,r20,0x8
    5a58:	d4 01 18 10 	l.sw 0x10(r1),r3
    5a5c:	8c 61 00 2e 	l.lbz r3,0x2e(r1)
    5a60:	b8 63 00 10 	l.slli r3,r3,0x10
    5a64:	d4 0e 20 2c 	l.sw 0x2c(r14),r4
    5a68:	bc 04 00 08 	l.sfeqi r4,0x8
    5a6c:	e3 de 18 00 	l.add r30,r30,r3
    5a70:	8c 61 00 2c 	l.lbz r3,0x2c(r1)
    5a74:	e3 de 18 00 	l.add r30,r30,r3
    5a78:	8c 61 00 2f 	l.lbz r3,0x2f(r1)
    5a7c:	b8 63 00 18 	l.slli r3,r3,0x18
    5a80:	e3 de 18 00 	l.add r30,r30,r3
    5a84:	8c 61 00 32 	l.lbz r3,0x32(r1)
    5a88:	b8 63 00 10 	l.slli r3,r3,0x10
    5a8c:	e3 9c 18 00 	l.add r28,r28,r3
    5a90:	8c 61 00 30 	l.lbz r3,0x30(r1)
    5a94:	e3 9c 18 00 	l.add r28,r28,r3
    5a98:	8c 61 00 33 	l.lbz r3,0x33(r1)
    5a9c:	b8 63 00 18 	l.slli r3,r3,0x18
    5aa0:	e3 9c 18 00 	l.add r28,r28,r3
    5aa4:	8c 61 00 36 	l.lbz r3,0x36(r1)
    5aa8:	b8 63 00 10 	l.slli r3,r3,0x10
    5aac:	e2 94 18 00 	l.add r20,r20,r3
    5ab0:	8c 61 00 34 	l.lbz r3,0x34(r1)
    5ab4:	e2 94 18 00 	l.add r20,r20,r3
    5ab8:	8c 61 00 37 	l.lbz r3,0x37(r1)
    5abc:	b8 63 00 18 	l.slli r3,r3,0x18
    5ac0:	10 00 00 07 	l.bf 5adc <start_input_bmp+0x3dc>
    5ac4:	e2 94 18 00 	l.add r20,r20,r3
    5ac8:	bc 04 00 18 	l.sfeqi r4,0x18
    5acc:	0c 00 00 1d 	l.bnf 5b40 <start_input_bmp+0x440>
    5ad0:	84 82 00 00 	l.lwz r4,0x0(r2)
    5ad4:	00 00 00 10 	l.j 5b14 <start_input_bmp+0x414>
    5ad8:	d4 04 80 18 	l.sw 0x18(r4),r16
    5adc:	84 62 00 00 	l.lwz r3,0x0(r2)
    5ae0:	9c 80 03 f1 	l.addi r4,r0,0x3f1
    5ae4:	d4 03 80 18 	l.sw 0x18(r3),r16
    5ae8:	d4 03 20 14 	l.sw 0x14(r3),r4
    5aec:	84 62 00 00 	l.lwz r3,0x0(r2)
    5af0:	9c 80 00 01 	l.addi r4,r0,0x1
    5af4:	d4 03 b0 1c 	l.sw 0x1c(r3),r22
    5af8:	9e 40 00 04 	l.addi r18,r0,0x4
    5afc:	84 62 00 00 	l.lwz r3,0x0(r2)
    5b00:	84 a3 00 04 	l.lwz r5,0x4(r3)
    5b04:	48 00 28 00 	l.jalr r5
    5b08:	a8 62 00 00 	l.ori r3,r2,0x0
    5b0c:	00 00 00 14 	l.j 5b5c <start_input_bmp+0x45c>
    5b10:	84 81 00 0c 	l.lwz r4,0xc(r1)
    5b14:	9c 60 03 f0 	l.addi r3,r0,0x3f0
    5b18:	d4 04 18 14 	l.sw 0x14(r4),r3
    5b1c:	84 62 00 00 	l.lwz r3,0x0(r2)
    5b20:	9c 80 00 01 	l.addi r4,r0,0x1
    5b24:	d4 03 b0 1c 	l.sw 0x1c(r3),r22
    5b28:	84 62 00 00 	l.lwz r3,0x0(r2)
    5b2c:	84 a3 00 04 	l.lwz r5,0x4(r3)
    5b30:	48 00 28 00 	l.jalr r5
    5b34:	a8 62 00 00 	l.ori r3,r2,0x0
    5b38:	00 00 00 08 	l.j 5b58 <start_input_bmp+0x458>
    5b3c:	9e 40 00 00 	l.addi r18,r0,0x0
    5b40:	9c 60 03 ea 	l.addi r3,r0,0x3ea
    5b44:	d4 04 18 14 	l.sw 0x14(r4),r3
    5b48:	84 84 00 00 	l.lwz r4,0x0(r4)
    5b4c:	48 00 20 00 	l.jalr r4
    5b50:	a8 62 00 00 	l.ori r3,r2,0x0
    5b54:	9e 40 00 00 	l.addi r18,r0,0x0
    5b58:	84 81 00 0c 	l.lwz r4,0xc(r1)
    5b5c:	bc 04 00 01 	l.sfeqi r4,0x1
    5b60:	10 00 00 07 	l.bf 5b7c <start_input_bmp+0x47c>
    5b64:	9c 80 03 ec 	l.addi r4,r0,0x3ec
    5b68:	84 62 00 00 	l.lwz r3,0x0(r2)
    5b6c:	d4 03 20 14 	l.sw 0x14(r3),r4
    5b70:	84 83 00 00 	l.lwz r4,0x0(r3)
    5b74:	48 00 20 00 	l.jalr r4
    5b78:	a8 62 00 00 	l.ori r3,r2,0x0
    5b7c:	84 61 00 10 	l.lwz r3,0x10(r1)
    5b80:	bc 03 00 00 	l.sfeqi r3,0x0
    5b84:	10 00 00 09 	l.bf 5ba8 <start_input_bmp+0x4a8>
    5b88:	bd bc 00 00 	l.sflesi r28,0x0
    5b8c:	84 62 00 00 	l.lwz r3,0x0(r2)
    5b90:	9c 80 03 ee 	l.addi r4,r0,0x3ee
    5b94:	d4 03 20 14 	l.sw 0x14(r3),r4
    5b98:	84 83 00 00 	l.lwz r4,0x0(r3)
    5b9c:	48 00 20 00 	l.jalr r4
    5ba0:	a8 62 00 00 	l.ori r3,r2,0x0
    5ba4:	bd bc 00 00 	l.sflesi r28,0x0
    5ba8:	10 00 00 1a 	l.bf 5c10 <start_input_bmp+0x510>
    5bac:	84 81 00 00 	l.lwz r4,0x0(r1)
    5bb0:	bd be 00 00 	l.sflesi r30,0x0
    5bb4:	10 00 00 18 	l.bf 5c14 <start_input_bmp+0x514>
    5bb8:	bc 12 00 00 	l.sfeqi r18,0x0
    5bbc:	a8 7e 00 00 	l.ori r3,r30,0x0
    5bc0:	04 00 2f c0 	l.jal 11ac0 <__divsi3>
    5bc4:	9c 80 00 64 	l.addi r4,r0,0x64
    5bc8:	9c 80 00 64 	l.addi r4,r0,0x64
    5bcc:	dc 02 58 ce 	l.sh 0xce(r2),r11
    5bd0:	04 00 2f bc 	l.jal 11ac0 <__divsi3>
    5bd4:	a8 7c 00 00 	l.ori r3,r28,0x0
    5bd8:	9c 80 00 02 	l.addi r4,r0,0x2
    5bdc:	dc 02 58 d0 	l.sh 0xd0(r2),r11
    5be0:	00 00 00 0b 	l.j 5c0c <start_input_bmp+0x50c>
    5be4:	d8 02 20 cc 	l.sb 0xcc(r2),r4
    5be8:	84 62 00 00 	l.lwz r3,0x0(r2)
    5bec:	9c 80 03 eb 	l.addi r4,r0,0x3eb
    5bf0:	aa 92 00 00 	l.ori r20,r18,0x0
    5bf4:	d4 03 20 14 	l.sw 0x14(r3),r4
    5bf8:	aa d2 00 00 	l.ori r22,r18,0x0
    5bfc:	84 83 00 00 	l.lwz r4,0x0(r3)
    5c00:	aa 12 00 00 	l.ori r16,r18,0x0
    5c04:	48 00 20 00 	l.jalr r4
    5c08:	a8 62 00 00 	l.ori r3,r2,0x0
    5c0c:	84 81 00 00 	l.lwz r4,0x0(r1)
    5c10:	bc 12 00 00 	l.sfeqi r18,0x0
    5c14:	9c 64 ff f2 	l.addi r3,r4,0xfffffff2
    5c18:	84 81 00 04 	l.lwz r4,0x4(r1)
    5c1c:	e0 63 20 00 	l.add r3,r3,r4
    5c20:	84 81 00 08 	l.lwz r4,0x8(r1)
    5c24:	e0 63 20 00 	l.add r3,r3,r4
    5c28:	e3 03 c0 00 	l.add r24,r3,r24
    5c2c:	10 00 00 57 	l.bf 5d88 <start_input_bmp+0x688>
    5c30:	e3 18 d0 02 	l.sub r24,r24,r26
    5c34:	bd b4 00 00 	l.sflesi r20,0x0
    5c38:	10 00 00 0b 	l.bf 5c64 <start_input_bmp+0x564>
    5c3c:	bd b4 01 00 	l.sflesi r20,0x100
    5c40:	10 00 00 0a 	l.bf 5c68 <start_input_bmp+0x568>
    5c44:	9c 80 03 e9 	l.addi r4,r0,0x3e9
    5c48:	84 62 00 00 	l.lwz r3,0x0(r2)
    5c4c:	d4 03 20 14 	l.sw 0x14(r3),r4
    5c50:	84 83 00 00 	l.lwz r4,0x0(r3)
    5c54:	48 00 20 00 	l.jalr r4
    5c58:	a8 62 00 00 	l.ori r3,r2,0x0
    5c5c:	00 00 00 04 	l.j 5c6c <start_input_bmp+0x56c>
    5c60:	84 62 00 04 	l.lwz r3,0x4(r2)
    5c64:	9e 80 01 00 	l.addi r20,r0,0x100
    5c68:	84 62 00 04 	l.lwz r3,0x4(r2)
    5c6c:	9c 80 00 01 	l.addi r4,r0,0x1
    5c70:	85 63 00 08 	l.lwz r11,0x8(r3)
    5c74:	a8 b4 00 00 	l.ori r5,r20,0x0
    5c78:	a8 62 00 00 	l.ori r3,r2,0x0
    5c7c:	48 00 58 00 	l.jalr r11
    5c80:	9c c0 00 03 	l.addi r6,r0,0x3
    5c84:	bc 12 00 03 	l.sfeqi r18,0x3
    5c88:	10 00 00 07 	l.bf 5ca4 <start_input_bmp+0x5a4>
    5c8c:	d4 0e 58 1c 	l.sw 0x1c(r14),r11
    5c90:	bc 12 00 04 	l.sfeqi r18,0x4
    5c94:	0c 00 00 36 	l.bnf 5d6c <start_input_bmp+0x66c>
    5c98:	9c a0 03 e9 	l.addi r5,r0,0x3e9
    5c9c:	00 00 00 1a 	l.j 5d04 <start_input_bmp+0x604>
    5ca0:	9f 40 00 00 	l.addi r26,r0,0x0
    5ca4:	9f 40 00 00 	l.addi r26,r0,0x0
    5ca8:	84 6e 00 1c 	l.lwz r3,0x1c(r14)
    5cac:	87 83 00 08 	l.lwz r28,0x8(r3)
    5cb0:	a8 6e 00 00 	l.ori r3,r14,0x0
    5cb4:	07 ff fe 6d 	l.jal 5668 <read_byte>
    5cb8:	e3 9c d0 00 	l.add r28,r28,r26
    5cbc:	d8 1c 58 00 	l.sb 0x0(r28),r11
    5cc0:	84 6e 00 1c 	l.lwz r3,0x1c(r14)
    5cc4:	87 83 00 04 	l.lwz r28,0x4(r3)
    5cc8:	a8 6e 00 00 	l.ori r3,r14,0x0
    5ccc:	07 ff fe 67 	l.jal 5668 <read_byte>
    5cd0:	e3 9c d0 00 	l.add r28,r28,r26
    5cd4:	d8 1c 58 00 	l.sb 0x0(r28),r11
    5cd8:	84 6e 00 1c 	l.lwz r3,0x1c(r14)
    5cdc:	87 83 00 00 	l.lwz r28,0x0(r3)
    5ce0:	a8 6e 00 00 	l.ori r3,r14,0x0
    5ce4:	07 ff fe 61 	l.jal 5668 <read_byte>
    5ce8:	e3 9c d0 00 	l.add r28,r28,r26
    5cec:	9f 5a 00 01 	l.addi r26,r26,0x1
    5cf0:	e5 9a a0 00 	l.sflts r26,r20
    5cf4:	13 ff ff ed 	l.bf 5ca8 <start_input_bmp+0x5a8>
    5cf8:	d8 1c 58 00 	l.sb 0x0(r28),r11
    5cfc:	00 00 00 22 	l.j 5d84 <start_input_bmp+0x684>
    5d00:	e2 54 93 06 	l.mul r18,r20,r18
    5d04:	84 6e 00 1c 	l.lwz r3,0x1c(r14)
    5d08:	87 83 00 08 	l.lwz r28,0x8(r3)
    5d0c:	a8 6e 00 00 	l.ori r3,r14,0x0
    5d10:	07 ff fe 56 	l.jal 5668 <read_byte>
    5d14:	e3 9c d0 00 	l.add r28,r28,r26
    5d18:	d8 1c 58 00 	l.sb 0x0(r28),r11
    5d1c:	84 6e 00 1c 	l.lwz r3,0x1c(r14)
    5d20:	87 83 00 04 	l.lwz r28,0x4(r3)
    5d24:	a8 6e 00 00 	l.ori r3,r14,0x0
    5d28:	07 ff fe 50 	l.jal 5668 <read_byte>
    5d2c:	e3 9c d0 00 	l.add r28,r28,r26
    5d30:	d8 1c 58 00 	l.sb 0x0(r28),r11
    5d34:	84 6e 00 1c 	l.lwz r3,0x1c(r14)
    5d38:	87 83 00 00 	l.lwz r28,0x0(r3)
    5d3c:	a8 6e 00 00 	l.ori r3,r14,0x0
    5d40:	07 ff fe 4a 	l.jal 5668 <read_byte>
    5d44:	e3 9c d0 00 	l.add r28,r28,r26
    5d48:	a8 6e 00 00 	l.ori r3,r14,0x0
    5d4c:	d8 1c 58 00 	l.sb 0x0(r28),r11
    5d50:	07 ff fe 46 	l.jal 5668 <read_byte>
    5d54:	9f 5a 00 01 	l.addi r26,r26,0x1
    5d58:	e5 9a a0 00 	l.sflts r26,r20
    5d5c:	13 ff ff ea 	l.bf 5d04 <start_input_bmp+0x604>
    5d60:	15 00 00 00 	l.nop 0x0
    5d64:	00 00 00 08 	l.j 5d84 <start_input_bmp+0x684>
    5d68:	e2 54 93 06 	l.mul r18,r20,r18
    5d6c:	84 6e 00 18 	l.lwz r3,0x18(r14)
    5d70:	84 83 00 00 	l.lwz r4,0x0(r3)
    5d74:	d4 04 28 14 	l.sw 0x14(r4),r5
    5d78:	84 84 00 00 	l.lwz r4,0x0(r4)
    5d7c:	48 00 20 00 	l.jalr r4
    5d80:	e2 54 93 06 	l.mul r18,r20,r18
    5d84:	e3 18 90 02 	l.sub r24,r24,r18
    5d88:	bd 78 00 00 	l.sfgesi r24,0x0
    5d8c:	10 00 00 0b 	l.bf 5db8 <start_input_bmp+0x6b8>
    5d90:	9c 80 03 eb 	l.addi r4,r0,0x3eb
    5d94:	84 62 00 00 	l.lwz r3,0x0(r2)
    5d98:	d4 03 20 14 	l.sw 0x14(r3),r4
    5d9c:	84 83 00 00 	l.lwz r4,0x0(r3)
    5da0:	48 00 20 00 	l.jalr r4
    5da4:	a8 62 00 00 	l.ori r3,r2,0x0
    5da8:	00 00 00 05 	l.j 5dbc <start_input_bmp+0x6bc>
    5dac:	9f 18 ff ff 	l.addi r24,r24,0xffffffff
    5db0:	07 ff fe 2e 	l.jal 5668 <read_byte>
    5db4:	a8 6e 00 00 	l.ori r3,r14,0x0
    5db8:	9f 18 ff ff 	l.addi r24,r24,0xffffffff
    5dbc:	bd 78 00 00 	l.sfgesi r24,0x0
    5dc0:	13 ff ff fc 	l.bf 5db0 <start_input_bmp+0x6b0>
    5dc4:	15 00 00 00 	l.nop 0x0
    5dc8:	84 6e 00 2c 	l.lwz r3,0x2c(r14)
    5dcc:	bc 23 00 18 	l.sfnei r3,0x18
    5dd0:	10 00 00 04 	l.bf 5de0 <start_input_bmp+0x6e0>
    5dd4:	a8 d0 00 00 	l.ori r6,r16,0x0
    5dd8:	e0 d0 80 00 	l.add r6,r16,r16
    5ddc:	e0 c6 80 00 	l.add r6,r6,r16
    5de0:	a4 a6 00 03 	l.andi r5,r6,0x3
    5de4:	bc 25 00 00 	l.sfnei r5,0x0
    5de8:	13 ff ff fe 	l.bf 5de0 <start_input_bmp+0x6e0>
    5dec:	9c c6 00 01 	l.addi r6,r6,0x1
    5df0:	9c c6 ff ff 	l.addi r6,r6,0xffffffff
    5df4:	84 62 00 04 	l.lwz r3,0x4(r2)
    5df8:	9c 80 00 01 	l.addi r4,r0,0x1
    5dfc:	85 63 00 10 	l.lwz r11,0x10(r3)
    5e00:	d4 0e 30 28 	l.sw 0x28(r14),r6
    5e04:	a8 62 00 00 	l.ori r3,r2,0x0
    5e08:	a8 f6 00 00 	l.ori r7,r22,0x0
    5e0c:	48 00 58 00 	l.jalr r11
    5e10:	a9 04 00 00 	l.ori r8,r4,0x0
    5e14:	18 60 00 00 	l.movhi r3,0x0
    5e18:	d4 0e 58 20 	l.sw 0x20(r14),r11
    5e1c:	a8 63 5e c0 	l.ori r3,r3,0x5ec0
    5e20:	d4 0e 18 04 	l.sw 0x4(r14),r3
    5e24:	84 62 00 08 	l.lwz r3,0x8(r2)
    5e28:	bc 03 00 00 	l.sfeqi r3,0x0
    5e2c:	10 00 00 05 	l.bf 5e40 <start_input_bmp+0x740>
    5e30:	15 00 00 00 	l.nop 0x0
    5e34:	84 83 00 18 	l.lwz r4,0x18(r3)
    5e38:	9c 84 00 01 	l.addi r4,r4,0x1
    5e3c:	d4 03 20 18 	l.sw 0x18(r3),r4
    5e40:	84 62 00 04 	l.lwz r3,0x4(r2)
    5e44:	e0 b0 80 00 	l.add r5,r16,r16
    5e48:	9c 80 00 01 	l.addi r4,r0,0x1
    5e4c:	85 63 00 08 	l.lwz r11,0x8(r3)
    5e50:	e0 a5 80 00 	l.add r5,r5,r16
    5e54:	a8 62 00 00 	l.ori r3,r2,0x0
    5e58:	48 00 58 00 	l.jalr r11
    5e5c:	a8 c4 00 00 	l.ori r6,r4,0x0
    5e60:	9c 60 00 01 	l.addi r3,r0,0x1
    5e64:	d4 0e 58 10 	l.sw 0x10(r14),r11
    5e68:	d4 0e 18 14 	l.sw 0x14(r14),r3
    5e6c:	9c 60 00 02 	l.addi r3,r0,0x2
    5e70:	d4 02 80 18 	l.sw 0x18(r2),r16
    5e74:	d4 02 18 24 	l.sw 0x24(r2),r3
    5e78:	9c 60 00 03 	l.addi r3,r0,0x3
    5e7c:	d4 02 b0 1c 	l.sw 0x1c(r2),r22
    5e80:	d4 02 18 20 	l.sw 0x20(r2),r3
    5e84:	9c 60 00 08 	l.addi r3,r0,0x8
    5e88:	d4 02 18 30 	l.sw 0x30(r2),r3
    5e8c:	9c 21 00 90 	l.addi r1,r1,0x90
    5e90:	85 21 ff fc 	l.lwz r9,0xfffffffc(r1)
    5e94:	84 41 ff d4 	l.lwz r2,0xffffffd4(r1)
    5e98:	85 c1 ff d8 	l.lwz r14,0xffffffd8(r1)
    5e9c:	86 01 ff dc 	l.lwz r16,0xffffffdc(r1)
    5ea0:	86 41 ff e0 	l.lwz r18,0xffffffe0(r1)
    5ea4:	86 81 ff e4 	l.lwz r20,0xffffffe4(r1)
    5ea8:	86 c1 ff e8 	l.lwz r22,0xffffffe8(r1)
    5eac:	87 01 ff ec 	l.lwz r24,0xffffffec(r1)
    5eb0:	87 41 ff f0 	l.lwz r26,0xfffffff0(r1)
    5eb4:	87 81 ff f4 	l.lwz r28,0xfffffff4(r1)
    5eb8:	44 00 48 00 	l.jr r9
    5ebc:	87 c1 ff f8 	l.lwz r30,0xfffffff8(r1)

00005ec0 <preload_image>:
    5ec0:	d7 e1 f7 f8 	l.sw 0xfffffff8(r1),r30
    5ec4:	1b c0 00 02 	l.movhi r30,0x2
    5ec8:	d7 e1 17 d4 	l.sw 0xffffffd4(r1),r2
    5ecc:	d7 e1 77 d8 	l.sw 0xffffffd8(r1),r14
    5ed0:	d7 e1 87 dc 	l.sw 0xffffffdc(r1),r16
    5ed4:	d7 e1 97 e0 	l.sw 0xffffffe0(r1),r18
    5ed8:	d7 e1 a7 e4 	l.sw 0xffffffe4(r1),r20
    5edc:	d7 e1 e7 f4 	l.sw 0xfffffff4(r1),r28
    5ee0:	d7 e1 4f fc 	l.sw 0xfffffffc(r1),r9
    5ee4:	d7 e1 b7 e8 	l.sw 0xffffffe8(r1),r22
    5ee8:	d7 e1 c7 ec 	l.sw 0xffffffec(r1),r24
    5eec:	d7 e1 d7 f0 	l.sw 0xfffffff0(r1),r26
    5ef0:	a8 43 00 00 	l.ori r2,r3,0x0
    5ef4:	9c 21 ff d4 	l.addi r1,r1,0xffffffd4
    5ef8:	a9 c4 00 00 	l.ori r14,r4,0x0
    5efc:	86 44 00 0c 	l.lwz r18,0xc(r4)
    5f00:	86 03 00 08 	l.lwz r16,0x8(r3)
    5f04:	9e 80 00 00 	l.addi r20,r0,0x0
    5f08:	ab de f7 f4 	l.ori r30,r30,0xf7f4
    5f0c:	00 00 00 32 	l.j 5fd4 <preload_image+0x114>
    5f10:	9f 80 00 2a 	l.addi r28,r0,0x2a
    5f14:	10 00 00 07 	l.bf 5f30 <preload_image+0x70>
    5f18:	15 00 00 00 	l.nop 0x0
    5f1c:	d4 10 18 08 	l.sw 0x8(r16),r3
    5f20:	d4 10 a0 04 	l.sw 0x4(r16),r20
    5f24:	84 90 00 00 	l.lwz r4,0x0(r16)
    5f28:	48 00 20 00 	l.jalr r4
    5f2c:	a8 62 00 00 	l.ori r3,r2,0x0
    5f30:	84 62 00 04 	l.lwz r3,0x4(r2)
    5f34:	9c c0 00 01 	l.addi r6,r0,0x1
    5f38:	85 63 00 1c 	l.lwz r11,0x1c(r3)
    5f3c:	84 8e 00 20 	l.lwz r4,0x20(r14)
    5f40:	a8 62 00 00 	l.ori r3,r2,0x0
    5f44:	a8 b4 00 00 	l.ori r5,r20,0x0
    5f48:	48 00 58 00 	l.jalr r11
    5f4c:	a8 e6 00 00 	l.ori r7,r6,0x0
    5f50:	86 ce 00 28 	l.lwz r22,0x28(r14)
    5f54:	00 00 00 1c 	l.j 5fc4 <preload_image+0x104>
    5f58:	87 0b 00 00 	l.lwz r24,0x0(r11)
    5f5c:	84 72 00 04 	l.lwz r3,0x4(r18)
    5f60:	9c 63 ff ff 	l.addi r3,r3,0xffffffff
    5f64:	bd 63 00 00 	l.sfgesi r3,0x0
    5f68:	10 00 00 0a 	l.bf 5f90 <preload_image+0xd0>
    5f6c:	d4 12 18 04 	l.sw 0x4(r18),r3
    5f70:	84 7e 00 00 	l.lwz r3,0x0(r30)
    5f74:	04 00 4b 63 	l.jal 18d00 <__srget_r>
    5f78:	a8 92 00 00 	l.ori r4,r18,0x0
    5f7c:	bc 0b ff ff 	l.sfeqi r11,0xffffffff
    5f80:	10 00 00 09 	l.bf 5fa4 <preload_image+0xe4>
    5f84:	ab 4b 00 00 	l.ori r26,r11,0x0
    5f88:	00 00 00 0d 	l.j 5fbc <preload_image+0xfc>
    5f8c:	d8 18 d0 00 	l.sb 0x0(r24),r26
    5f90:	84 72 00 00 	l.lwz r3,0x0(r18)
    5f94:	8f 43 00 00 	l.lbz r26,0x0(r3)
    5f98:	9c 63 00 01 	l.addi r3,r3,0x1
    5f9c:	00 00 00 07 	l.j 5fb8 <preload_image+0xf8>
    5fa0:	d4 12 18 00 	l.sw 0x0(r18),r3
    5fa4:	84 62 00 00 	l.lwz r3,0x0(r2)
    5fa8:	d4 03 e0 14 	l.sw 0x14(r3),r28
    5fac:	84 83 00 00 	l.lwz r4,0x0(r3)
    5fb0:	48 00 20 00 	l.jalr r4
    5fb4:	a8 62 00 00 	l.ori r3,r2,0x0
    5fb8:	d8 18 d0 00 	l.sb 0x0(r24),r26
    5fbc:	9e d6 ff ff 	l.addi r22,r22,0xffffffff
    5fc0:	9f 18 00 01 	l.addi r24,r24,0x1
    5fc4:	bc 36 00 00 	l.sfnei r22,0x0
    5fc8:	13 ff ff e5 	l.bf 5f5c <preload_image+0x9c>
    5fcc:	15 00 00 00 	l.nop 0x0
    5fd0:	9e 94 00 01 	l.addi r20,r20,0x1
    5fd4:	84 62 00 1c 	l.lwz r3,0x1c(r2)
    5fd8:	e4 94 18 00 	l.sfltu r20,r3
    5fdc:	13 ff ff ce 	l.bf 5f14 <preload_image+0x54>
    5fe0:	bc 10 00 00 	l.sfeqi r16,0x0
    5fe4:	10 00 00 05 	l.bf 5ff8 <preload_image+0x138>
    5fe8:	15 00 00 00 	l.nop 0x0
    5fec:	84 70 00 14 	l.lwz r3,0x14(r16)
    5ff0:	9c 63 00 01 	l.addi r3,r3,0x1
    5ff4:	d4 10 18 14 	l.sw 0x14(r16),r3
    5ff8:	84 6e 00 2c 	l.lwz r3,0x2c(r14)
    5ffc:	bc 03 00 08 	l.sfeqi r3,0x8
    6000:	10 00 00 06 	l.bf 6018 <preload_image+0x158>
    6004:	bc 03 00 18 	l.sfeqi r3,0x18
    6008:	0c 00 00 0a 	l.bnf 6030 <preload_image+0x170>
    600c:	9c 80 03 ea 	l.addi r4,r0,0x3ea
    6010:	00 00 00 05 	l.j 6024 <preload_image+0x164>
    6014:	18 60 00 00 	l.movhi r3,0x0
    6018:	18 60 00 00 	l.movhi r3,0x0
    601c:	00 00 00 03 	l.j 6028 <preload_image+0x168>
    6020:	a8 63 55 10 	l.ori r3,r3,0x5510
    6024:	a8 63 55 cc 	l.ori r3,r3,0x55cc
    6028:	00 00 00 07 	l.j 6044 <preload_image+0x184>
    602c:	d4 0e 18 04 	l.sw 0x4(r14),r3
    6030:	84 62 00 00 	l.lwz r3,0x0(r2)
    6034:	d4 03 20 14 	l.sw 0x14(r3),r4
    6038:	84 83 00 00 	l.lwz r4,0x0(r3)
    603c:	48 00 20 00 	l.jalr r4
    6040:	a8 62 00 00 	l.ori r3,r2,0x0
    6044:	84 62 00 1c 	l.lwz r3,0x1c(r2)
    6048:	84 ae 00 04 	l.lwz r5,0x4(r14)
    604c:	d4 0e 18 24 	l.sw 0x24(r14),r3
    6050:	9c 21 00 2c 	l.addi r1,r1,0x2c
    6054:	a8 62 00 00 	l.ori r3,r2,0x0
    6058:	a8 8e 00 00 	l.ori r4,r14,0x0
    605c:	85 21 ff fc 	l.lwz r9,0xfffffffc(r1)
    6060:	84 41 ff d4 	l.lwz r2,0xffffffd4(r1)
    6064:	85 c1 ff d8 	l.lwz r14,0xffffffd8(r1)
    6068:	86 01 ff dc 	l.lwz r16,0xffffffdc(r1)
    606c:	86 41 ff e0 	l.lwz r18,0xffffffe0(r1)
    6070:	86 81 ff e4 	l.lwz r20,0xffffffe4(r1)
    6074:	86 c1 ff e8 	l.lwz r22,0xffffffe8(r1)
    6078:	87 01 ff ec 	l.lwz r24,0xffffffec(r1)
    607c:	87 41 ff f0 	l.lwz r26,0xfffffff0(r1)
    6080:	87 81 ff f4 	l.lwz r28,0xfffffff4(r1)
    6084:	44 00 28 00 	l.jr r5
    6088:	87 c1 ff f8 	l.lwz r30,0xfffffff8(r1)

0000608c <jinit_read_bmp>:
    608c:	84 83 00 04 	l.lwz r4,0x4(r3)
    6090:	d7 e1 4f fc 	l.sw 0xfffffffc(r1),r9
    6094:	d7 e1 17 f8 	l.sw 0xfffffff8(r1),r2
    6098:	85 64 00 00 	l.lwz r11,0x0(r4)
    609c:	a8 43 00 00 	l.ori r2,r3,0x0
    60a0:	9c 21 ff f8 	l.addi r1,r1,0xfffffff8
    60a4:	9c 80 00 01 	l.addi r4,r0,0x1
    60a8:	48 00 58 00 	l.jalr r11
    60ac:	9c a0 00 30 	l.addi r5,r0,0x30
    60b0:	d4 0b 10 18 	l.sw 0x18(r11),r2
    60b4:	18 40 00 00 	l.movhi r2,0x0
    60b8:	a8 42 57 00 	l.ori r2,r2,0x5700
    60bc:	d4 0b 10 00 	l.sw 0x0(r11),r2
    60c0:	18 40 00 00 	l.movhi r2,0x0
    60c4:	a8 42 56 60 	l.ori r2,r2,0x5660
    60c8:	d4 0b 10 08 	l.sw 0x8(r11),r2
    60cc:	9c 21 00 08 	l.addi r1,r1,0x8
    60d0:	85 21 ff fc 	l.lwz r9,0xfffffffc(r1)
    60d4:	44 00 48 00 	l.jr r9
    60d8:	84 41 ff f8 	l.lwz r2,0xfffffff8(r1)

000060dc <text_getc>:
    60dc:	d7 e1 17 f4 	l.sw 0xfffffff4(r1),r2
    60e0:	a8 43 00 00 	l.ori r2,r3,0x0
    60e4:	84 63 00 04 	l.lwz r3,0x4(r3)
    60e8:	d7 e1 4f fc 	l.sw 0xfffffffc(r1),r9
    60ec:	9c 63 ff ff 	l.addi r3,r3,0xffffffff
    60f0:	d7 e1 77 f8 	l.sw 0xfffffff8(r1),r14
    60f4:	d4 02 18 04 	l.sw 0x4(r2),r3
    60f8:	bd 63 00 00 	l.sfgesi r3,0x0
    60fc:	10 00 00 09 	l.bf 6120 <text_getc+0x44>
    6100:	9c 21 ff f4 	l.addi r1,r1,0xfffffff4
    6104:	18 60 00 02 	l.movhi r3,0x2
    6108:	a8 82 00 00 	l.ori r4,r2,0x0
    610c:	a8 63 f7 f4 	l.ori r3,r3,0xf7f4
    6110:	04 00 4a fc 	l.jal 18d00 <__srget_r>
    6114:	84 63 00 00 	l.lwz r3,0x0(r3)
    6118:	00 00 00 07 	l.j 6134 <text_getc+0x58>
    611c:	bc 2b 00 23 	l.sfnei r11,0x23
    6120:	84 62 00 00 	l.lwz r3,0x0(r2)
    6124:	8d 63 00 00 	l.lbz r11,0x0(r3)
    6128:	9c 63 00 01 	l.addi r3,r3,0x1
    612c:	d4 02 18 00 	l.sw 0x0(r2),r3
    6130:	bc 2b 00 23 	l.sfnei r11,0x23
    6134:	10 00 00 1d 	l.bf 61a8 <text_getc+0xcc>
    6138:	15 00 00 00 	l.nop 0x0
    613c:	19 c0 00 02 	l.movhi r14,0x2
    6140:	a9 ce f7 f4 	l.ori r14,r14,0xf7f4
    6144:	84 62 00 04 	l.lwz r3,0x4(r2)
    6148:	9c 63 ff ff 	l.addi r3,r3,0xffffffff
    614c:	bd 63 00 00 	l.sfgesi r3,0x0
    6150:	10 00 00 07 	l.bf 616c <text_getc+0x90>
    6154:	d4 02 18 04 	l.sw 0x4(r2),r3
    6158:	84 6e 00 00 	l.lwz r3,0x0(r14)
    615c:	04 00 4a e9 	l.jal 18d00 <__srget_r>
    6160:	a8 82 00 00 	l.ori r4,r2,0x0
    6164:	00 00 00 07 	l.j 6180 <text_getc+0xa4>
    6168:	ac 6b ff ff 	l.xori r3,r11,0xffffffff
    616c:	84 62 00 00 	l.lwz r3,0x0(r2)
    6170:	8d 63 00 00 	l.lbz r11,0x0(r3)
    6174:	9c 63 00 01 	l.addi r3,r3,0x1
    6178:	d4 02 18 00 	l.sw 0x0(r2),r3
    617c:	ac 6b ff ff 	l.xori r3,r11,0xffffffff
    6180:	e0 80 18 02 	l.sub r4,r0,r3
    6184:	e0 64 18 04 	l.or r3,r4,r3
    6188:	bd 63 00 00 	l.sfgesi r3,0x0
    618c:	10 00 00 07 	l.bf 61a8 <text_getc+0xcc>
    6190:	ac 6b 00 0a 	l.xori r3,r11,0xa
    6194:	e0 80 18 02 	l.sub r4,r0,r3
    6198:	e0 64 18 04 	l.or r3,r4,r3
    619c:	bd 83 00 00 	l.sfltsi r3,0x0
    61a0:	13 ff ff e9 	l.bf 6144 <text_getc+0x68>
    61a4:	15 00 00 00 	l.nop 0x0
    61a8:	9c 21 00 0c 	l.addi r1,r1,0xc
    61ac:	85 21 ff fc 	l.lwz r9,0xfffffffc(r1)
    61b0:	84 41 ff f4 	l.lwz r2,0xfffffff4(r1)
    61b4:	44 00 48 00 	l.jr r9
    61b8:	85 c1 ff f8 	l.lwz r14,0xfffffff8(r1)

000061bc <read_text_integer>:
    61bc:	d7 e1 87 f0 	l.sw 0xfffffff0(r1),r16
    61c0:	1a 00 00 02 	l.movhi r16,0x2
    61c4:	d7 e1 77 ec 	l.sw 0xffffffec(r1),r14
    61c8:	d7 e1 97 f4 	l.sw 0xfffffff4(r1),r18
    61cc:	d7 e1 a7 f8 	l.sw 0xfffffff8(r1),r20
    61d0:	d7 e1 4f fc 	l.sw 0xfffffffc(r1),r9
    61d4:	d7 e1 17 e8 	l.sw 0xffffffe8(r1),r2
    61d8:	aa 43 00 00 	l.ori r18,r3,0x0
    61dc:	9c 21 ff e8 	l.addi r1,r1,0xffffffe8
    61e0:	aa 84 00 00 	l.ori r20,r4,0x0
    61e4:	a9 c5 00 00 	l.ori r14,r5,0x0
    61e8:	aa 10 f7 f0 	l.ori r16,r16,0xf7f0
    61ec:	07 ff ff bc 	l.jal 60dc <text_getc>
    61f0:	a8 72 00 00 	l.ori r3,r18,0x0
    61f4:	bc 2b ff ff 	l.sfnei r11,0xffffffff
    61f8:	10 00 00 05 	l.bf 620c <read_text_integer+0x50>
    61fc:	15 00 00 00 	l.nop 0x0
    6200:	d4 0e 58 00 	l.sw 0x0(r14),r11
    6204:	00 00 00 26 	l.j 629c <read_text_integer+0xe0>
    6208:	9d 60 00 00 	l.addi r11,r0,0x0
    620c:	84 50 00 00 	l.lwz r2,0x0(r16)
    6210:	e0 42 58 00 	l.add r2,r2,r11
    6214:	8c 42 00 01 	l.lbz r2,0x1(r2)
    6218:	a4 62 00 08 	l.andi r3,r2,0x8
    621c:	bc 23 00 00 	l.sfnei r3,0x0
    6220:	13 ff ff f3 	l.bf 61ec <read_text_integer+0x30>
    6224:	a4 42 00 04 	l.andi r2,r2,0x4
    6228:	bc 22 00 00 	l.sfnei r2,0x0
    622c:	10 00 00 05 	l.bf 6240 <read_text_integer+0x84>
    6230:	1a 00 00 02 	l.movhi r16,0x2
    6234:	d4 0e 58 00 	l.sw 0x0(r14),r11
    6238:	00 00 00 19 	l.j 629c <read_text_integer+0xe0>
    623c:	a9 62 00 00 	l.ori r11,r2,0x0
    6240:	9c 4b ff d0 	l.addi r2,r11,0xffffffd0
    6244:	00 00 00 0e 	l.j 627c <read_text_integer+0xc0>
    6248:	aa 10 f7 f0 	l.ori r16,r16,0xf7f0
    624c:	84 70 00 00 	l.lwz r3,0x0(r16)
    6250:	e0 63 58 00 	l.add r3,r3,r11
    6254:	8c 63 00 01 	l.lbz r3,0x1(r3)
    6258:	a4 63 00 04 	l.andi r3,r3,0x4
    625c:	bc 03 00 00 	l.sfeqi r3,0x0
    6260:	10 00 00 0c 	l.bf 6290 <read_text_integer+0xd4>
    6264:	15 00 00 00 	l.nop 0x0
    6268:	e0 62 10 00 	l.add r3,r2,r2
    626c:	b8 42 00 03 	l.slli r2,r2,0x3
    6270:	9d 6b ff d0 	l.addi r11,r11,0xffffffd0
    6274:	e0 43 10 00 	l.add r2,r3,r2
    6278:	e0 4b 10 00 	l.add r2,r11,r2
    627c:	07 ff ff 98 	l.jal 60dc <text_getc>
    6280:	a8 72 00 00 	l.ori r3,r18,0x0
    6284:	bc 2b ff ff 	l.sfnei r11,0xffffffff
    6288:	13 ff ff f1 	l.bf 624c <read_text_integer+0x90>
    628c:	15 00 00 00 	l.nop 0x0
    6290:	d4 14 10 00 	l.sw 0x0(r20),r2
    6294:	d4 0e 58 00 	l.sw 0x0(r14),r11
    6298:	9d 60 00 01 	l.addi r11,r0,0x1
    629c:	9c 21 00 18 	l.addi r1,r1,0x18
    62a0:	85 21 ff fc 	l.lwz r9,0xfffffffc(r1)
    62a4:	84 41 ff e8 	l.lwz r2,0xffffffe8(r1)
    62a8:	85 c1 ff ec 	l.lwz r14,0xffffffec(r1)
    62ac:	86 01 ff f0 	l.lwz r16,0xfffffff0(r1)
    62b0:	86 41 ff f4 	l.lwz r18,0xfffffff4(r1)
    62b4:	44 00 48 00 	l.jr r9
    62b8:	86 81 ff f8 	l.lwz r20,0xfffffff8(r1)

000062bc <read_scan_integer>:
    62bc:	d7 e1 17 f0 	l.sw 0xfffffff0(r1),r2
    62c0:	d7 e1 77 f4 	l.sw 0xfffffff4(r1),r14
    62c4:	d7 e1 4f fc 	l.sw 0xfffffffc(r1),r9
    62c8:	d7 e1 87 f8 	l.sw 0xfffffff8(r1),r16
    62cc:	9c 21 ff f0 	l.addi r1,r1,0xfffffff0
    62d0:	a9 c3 00 00 	l.ori r14,r3,0x0
    62d4:	07 ff ff ba 	l.jal 61bc <read_text_integer>
    62d8:	a8 45 00 00 	l.ori r2,r5,0x0
    62dc:	bc 0b 00 00 	l.sfeqi r11,0x0
    62e0:	10 00 00 31 	l.bf 63a4 <read_scan_integer+0xe8>
    62e4:	a8 cb 00 00 	l.ori r6,r11,0x0
    62e8:	1a 00 00 02 	l.movhi r16,0x2
    62ec:	85 62 00 00 	l.lwz r11,0x0(r2)
    62f0:	00 00 00 04 	l.j 6300 <read_scan_integer+0x44>
    62f4:	aa 10 f7 f0 	l.ori r16,r16,0xf7f0
    62f8:	07 ff ff 79 	l.jal 60dc <text_getc>
    62fc:	a8 6e 00 00 	l.ori r3,r14,0x0
    6300:	bc 0b ff ff 	l.sfeqi r11,0xffffffff
    6304:	10 00 00 09 	l.bf 6328 <read_scan_integer+0x6c>
    6308:	18 60 00 02 	l.movhi r3,0x2
    630c:	84 70 00 00 	l.lwz r3,0x0(r16)
    6310:	e0 63 58 00 	l.add r3,r3,r11
    6314:	8c 63 00 01 	l.lbz r3,0x1(r3)
    6318:	a4 63 00 08 	l.andi r3,r3,0x8
    631c:	bc 23 00 00 	l.sfnei r3,0x0
    6320:	13 ff ff f6 	l.bf 62f8 <read_scan_integer+0x3c>
    6324:	18 60 00 02 	l.movhi r3,0x2
    6328:	a8 63 f7 f0 	l.ori r3,r3,0xf7f0
    632c:	84 63 00 00 	l.lwz r3,0x0(r3)
    6330:	e0 63 58 00 	l.add r3,r3,r11
    6334:	8c 63 00 01 	l.lbz r3,0x1(r3)
    6338:	a4 63 00 04 	l.andi r3,r3,0x4
    633c:	bc 03 00 00 	l.sfeqi r3,0x0
    6340:	10 00 00 0a 	l.bf 6368 <read_scan_integer+0xac>
    6344:	ac 6b 00 3b 	l.xori r3,r11,0x3b
    6348:	a8 6b 00 00 	l.ori r3,r11,0x0
    634c:	04 00 59 fd 	l.jal 1cb40 <ungetc>
    6350:	a8 8e 00 00 	l.ori r4,r14,0x0
    6354:	bc 0b ff ff 	l.sfeqi r11,0xffffffff
    6358:	0c 00 00 10 	l.bnf 6398 <read_scan_integer+0xdc>
    635c:	9c c0 00 00 	l.addi r6,r0,0x0
    6360:	00 00 00 12 	l.j 63a8 <read_scan_integer+0xec>
    6364:	9c 21 00 10 	l.addi r1,r1,0x10
    6368:	e0 80 18 02 	l.sub r4,r0,r3
    636c:	e0 64 18 04 	l.or r3,r4,r3
    6370:	bd 63 00 00 	l.sfgesi r3,0x0
    6374:	10 00 00 0a 	l.bf 639c <read_scan_integer+0xe0>
    6378:	ac 6b ff ff 	l.xori r3,r11,0xffffffff
    637c:	e0 80 18 02 	l.sub r4,r0,r3
    6380:	e0 64 18 04 	l.or r3,r4,r3
    6384:	bd 63 00 00 	l.sfgesi r3,0x0
    6388:	10 00 00 05 	l.bf 639c <read_scan_integer+0xe0>
    638c:	bc 2b 00 3a 	l.sfnei r11,0x3a
    6390:	0c 00 00 03 	l.bnf 639c <read_scan_integer+0xe0>
    6394:	15 00 00 00 	l.nop 0x0
    6398:	9d 60 00 20 	l.addi r11,r0,0x20
    639c:	d4 02 58 00 	l.sw 0x0(r2),r11
    63a0:	9c c0 00 01 	l.addi r6,r0,0x1
    63a4:	9c 21 00 10 	l.addi r1,r1,0x10
    63a8:	a9 66 00 00 	l.ori r11,r6,0x0
    63ac:	85 21 ff fc 	l.lwz r9,0xfffffffc(r1)
    63b0:	84 41 ff f0 	l.lwz r2,0xfffffff0(r1)
    63b4:	85 c1 ff f4 	l.lwz r14,0xfffffff4(r1)
    63b8:	44 00 48 00 	l.jr r9
    63bc:	86 01 ff f8 	l.lwz r16,0xfffffff8(r1)

000063c0 <read_quant_tables>:
    63c0:	d7 e1 77 d8 	l.sw 0xffffffd8(r1),r14
    63c4:	d7 e1 f7 f8 	l.sw 0xfffffff8(r1),r30
    63c8:	a9 c4 00 00 	l.ori r14,r4,0x0
    63cc:	ab c3 00 00 	l.ori r30,r3,0x0
    63d0:	a8 64 00 00 	l.ori r3,r4,0x0
    63d4:	18 80 00 02 	l.movhi r4,0x2
    63d8:	d7 e1 17 d4 	l.sw 0xffffffd4(r1),r2
    63dc:	d7 e1 4f fc 	l.sw 0xfffffffc(r1),r9
    63e0:	d7 e1 87 dc 	l.sw 0xffffffdc(r1),r16
    63e4:	d7 e1 97 e0 	l.sw 0xffffffe0(r1),r18
    63e8:	d7 e1 a7 e4 	l.sw 0xffffffe4(r1),r20
    63ec:	d7 e1 b7 e8 	l.sw 0xffffffe8(r1),r22
    63f0:	d7 e1 c7 ec 	l.sw 0xffffffec(r1),r24
    63f4:	d7 e1 d7 f0 	l.sw 0xfffffff0(r1),r26
    63f8:	d7 e1 e7 f4 	l.sw 0xfffffff4(r1),r28
    63fc:	a8 84 be de 	l.ori r4,r4,0xbede
    6400:	9c 21 fe c0 	l.addi r1,r1,0xfffffec0
    6404:	d4 01 28 04 	l.sw 0x4(r1),r5
    6408:	04 00 3b 96 	l.jal 15260 <fopen>
    640c:	d4 01 30 08 	l.sw 0x8(r1),r6
    6410:	bc 0b 00 00 	l.sfeqi r11,0x0
    6414:	10 00 00 08 	l.bf 6434 <read_quant_tables+0x74>
    6418:	a8 4b 00 00 	l.ori r2,r11,0x0
    641c:	9e 00 00 00 	l.addi r16,r0,0x0
    6420:	9e 81 01 0c 	l.addi r20,r1,0x10c
    6424:	9f 01 01 10 	l.addi r24,r1,0x110
    6428:	9f 81 00 10 	l.addi r28,r1,0x10
    642c:	00 00 00 3d 	l.j 6520 <read_quant_tables+0x160>
    6430:	9f 41 00 0c 	l.addi r26,r1,0xc
    6434:	18 60 00 02 	l.movhi r3,0x2
    6438:	18 80 00 02 	l.movhi r4,0x2
    643c:	a8 63 f7 f4 	l.ori r3,r3,0xf7f4
    6440:	a8 84 a8 98 	l.ori r4,r4,0xa898
    6444:	84 63 00 00 	l.lwz r3,0x0(r3)
    6448:	84 63 00 0c 	l.lwz r3,0xc(r3)
    644c:	04 00 3b 98 	l.jal 152ac <fprintf>
    6450:	d4 01 70 00 	l.sw 0x0(r1),r14
    6454:	00 00 00 4c 	l.j 6584 <read_quant_tables+0x1c4>
    6458:	a9 62 00 00 	l.ori r11,r2,0x0
    645c:	bc 30 00 04 	l.sfnei r16,0x4
    6460:	10 00 00 0e 	l.bf 6498 <read_quant_tables+0xd8>
    6464:	aa 5c 00 00 	l.ori r18,r28,0x0
    6468:	18 60 00 02 	l.movhi r3,0x2
    646c:	18 80 00 02 	l.movhi r4,0x2
    6470:	a8 63 f7 f4 	l.ori r3,r3,0xf7f4
    6474:	a8 84 a8 b2 	l.ori r4,r4,0xa8b2
    6478:	84 63 00 00 	l.lwz r3,0x0(r3)
    647c:	84 63 00 0c 	l.lwz r3,0xc(r3)
    6480:	04 00 3b 8b 	l.jal 152ac <fprintf>
    6484:	d4 01 70 00 	l.sw 0x0(r1),r14
    6488:	04 00 39 47 	l.jal 149a4 <fclose>
    648c:	a8 62 00 00 	l.ori r3,r2,0x0
    6490:	00 00 00 3d 	l.j 6584 <read_quant_tables+0x1c4>
    6494:	9d 60 00 00 	l.addi r11,r0,0x0
    6498:	84 61 01 0c 	l.lwz r3,0x10c(r1)
    649c:	d4 01 18 0c 	l.sw 0xc(r1),r3
    64a0:	a8 62 00 00 	l.ori r3,r2,0x0
    64a4:	a8 94 00 00 	l.ori r4,r20,0x0
    64a8:	07 ff ff 45 	l.jal 61bc <read_text_integer>
    64ac:	a8 b8 00 00 	l.ori r5,r24,0x0
    64b0:	bc 2b 00 00 	l.sfnei r11,0x0
    64b4:	10 00 00 0e 	l.bf 64ec <read_quant_tables+0x12c>
    64b8:	aa cb 00 00 	l.ori r22,r11,0x0
    64bc:	18 60 00 02 	l.movhi r3,0x2
    64c0:	18 80 00 02 	l.movhi r4,0x2
    64c4:	a8 63 f7 f4 	l.ori r3,r3,0xf7f4
    64c8:	a8 84 a8 ce 	l.ori r4,r4,0xa8ce
    64cc:	84 63 00 00 	l.lwz r3,0x0(r3)
    64d0:	84 63 00 0c 	l.lwz r3,0xc(r3)
    64d4:	04 00 3b 76 	l.jal 152ac <fprintf>
    64d8:	d4 01 70 00 	l.sw 0x0(r1),r14
    64dc:	04 00 39 32 	l.jal 149a4 <fclose>
    64e0:	a8 62 00 00 	l.ori r3,r2,0x0
    64e4:	00 00 00 28 	l.j 6584 <read_quant_tables+0x1c4>
    64e8:	a9 76 00 00 	l.ori r11,r22,0x0
    64ec:	84 61 01 0c 	l.lwz r3,0x10c(r1)
    64f0:	d4 12 18 00 	l.sw 0x0(r18),r3
    64f4:	9e 52 00 04 	l.addi r18,r18,0x4
    64f8:	e4 32 a0 00 	l.sfne r18,r20
    64fc:	13 ff ff ea 	l.bf 64a4 <read_quant_tables+0xe4>
    6500:	a8 62 00 00 	l.ori r3,r2,0x0
    6504:	a8 90 00 00 	l.ori r4,r16,0x0
    6508:	a8 7e 00 00 	l.ori r3,r30,0x0
    650c:	a8 ba 00 00 	l.ori r5,r26,0x0
    6510:	84 c1 00 04 	l.lwz r6,0x4(r1)
    6514:	84 e1 00 08 	l.lwz r7,0x8(r1)
    6518:	04 00 04 17 	l.jal 7574 <jpeg_add_quant_table>
    651c:	9e 10 00 01 	l.addi r16,r16,0x1
    6520:	a8 62 00 00 	l.ori r3,r2,0x0
    6524:	a8 94 00 00 	l.ori r4,r20,0x0
    6528:	07 ff ff 25 	l.jal 61bc <read_text_integer>
    652c:	a8 b8 00 00 	l.ori r5,r24,0x0
    6530:	bc 2b 00 00 	l.sfnei r11,0x0
    6534:	13 ff ff ca 	l.bf 645c <read_quant_tables+0x9c>
    6538:	aa 4b 00 00 	l.ori r18,r11,0x0
    653c:	84 61 01 10 	l.lwz r3,0x110(r1)
    6540:	bc 03 ff ff 	l.sfeqi r3,0xffffffff
    6544:	10 00 00 0d 	l.bf 6578 <read_quant_tables+0x1b8>
    6548:	18 60 00 02 	l.movhi r3,0x2
    654c:	18 80 00 02 	l.movhi r4,0x2
    6550:	a8 63 f7 f4 	l.ori r3,r3,0xf7f4
    6554:	a8 84 a8 ed 	l.ori r4,r4,0xa8ed
    6558:	84 63 00 00 	l.lwz r3,0x0(r3)
    655c:	84 63 00 0c 	l.lwz r3,0xc(r3)
    6560:	04 00 3b 53 	l.jal 152ac <fprintf>
    6564:	d4 01 70 00 	l.sw 0x0(r1),r14
    6568:	04 00 39 0f 	l.jal 149a4 <fclose>
    656c:	a8 62 00 00 	l.ori r3,r2,0x0
    6570:	00 00 00 05 	l.j 6584 <read_quant_tables+0x1c4>
    6574:	a9 72 00 00 	l.ori r11,r18,0x0
    6578:	04 00 39 0b 	l.jal 149a4 <fclose>
    657c:	a8 62 00 00 	l.ori r3,r2,0x0
    6580:	9d 60 00 01 	l.addi r11,r0,0x1
    6584:	9c 21 01 40 	l.addi r1,r1,0x140
    6588:	85 21 ff fc 	l.lwz r9,0xfffffffc(r1)
    658c:	84 41 ff d4 	l.lwz r2,0xffffffd4(r1)
    6590:	85 c1 ff d8 	l.lwz r14,0xffffffd8(r1)
    6594:	86 01 ff dc 	l.lwz r16,0xffffffdc(r1)
    6598:	86 41 ff e0 	l.lwz r18,0xffffffe0(r1)
    659c:	86 81 ff e4 	l.lwz r20,0xffffffe4(r1)
    65a0:	86 c1 ff e8 	l.lwz r22,0xffffffe8(r1)
    65a4:	87 01 ff ec 	l.lwz r24,0xffffffec(r1)
    65a8:	87 41 ff f0 	l.lwz r26,0xfffffff0(r1)
    65ac:	87 81 ff f4 	l.lwz r28,0xfffffff4(r1)
    65b0:	44 00 48 00 	l.jr r9
    65b4:	87 c1 ff f8 	l.lwz r30,0xfffffff8(r1)

000065b8 <read_scan_script>:
    65b8:	d7 e1 87 dc 	l.sw 0xffffffdc(r1),r16
    65bc:	d7 e1 b7 e8 	l.sw 0xffffffe8(r1),r22
    65c0:	aa 04 00 00 	l.ori r16,r4,0x0
    65c4:	aa c3 00 00 	l.ori r22,r3,0x0
    65c8:	a8 64 00 00 	l.ori r3,r4,0x0
    65cc:	18 80 00 02 	l.movhi r4,0x2
    65d0:	d7 e1 17 d4 	l.sw 0xffffffd4(r1),r2
    65d4:	d7 e1 4f fc 	l.sw 0xfffffffc(r1),r9
    65d8:	d7 e1 77 d8 	l.sw 0xffffffd8(r1),r14
    65dc:	d7 e1 97 e0 	l.sw 0xffffffe0(r1),r18
    65e0:	d7 e1 a7 e4 	l.sw 0xffffffe4(r1),r20
    65e4:	d7 e1 c7 ec 	l.sw 0xffffffec(r1),r24
    65e8:	d7 e1 d7 f0 	l.sw 0xfffffff0(r1),r26
    65ec:	d7 e1 e7 f4 	l.sw 0xfffffff4(r1),r28
    65f0:	d7 e1 f7 f8 	l.sw 0xfffffff8(r1),r30
    65f4:	a8 84 be de 	l.ori r4,r4,0xbede
    65f8:	04 00 3b 1a 	l.jal 15260 <fopen>
    65fc:	9c 21 f1 ac 	l.addi r1,r1,0xfffff1ac
    6600:	bc 0b 00 00 	l.sfeqi r11,0x0
    6604:	10 00 00 0c 	l.bf 6634 <read_scan_script+0x7c>
    6608:	a8 4b 00 00 	l.ori r2,r11,0x0
    660c:	9c 61 00 30 	l.addi r3,r1,0x30
    6610:	9f c1 00 24 	l.addi r30,r1,0x24
    6614:	d4 01 18 08 	l.sw 0x8(r1),r3
    6618:	9f 81 00 28 	l.addi r28,r1,0x28
    661c:	9f 41 00 2c 	l.addi r26,r1,0x2c
    6620:	9f 01 00 10 	l.addi r24,r1,0x10
    6624:	9d c0 00 00 	l.addi r14,r0,0x0
    6628:	9e 81 0e 20 	l.addi r20,r1,0xe20
    662c:	00 00 00 92 	l.j 6874 <read_scan_script+0x2bc>
    6630:	9e 41 0e 24 	l.addi r18,r1,0xe24
    6634:	18 60 00 02 	l.movhi r3,0x2
    6638:	18 80 00 02 	l.movhi r4,0x2
    663c:	a8 63 f7 f4 	l.ori r3,r3,0xf7f4
    6640:	a8 84 a9 0a 	l.ori r4,r4,0xa90a
    6644:	84 63 00 00 	l.lwz r3,0x0(r3)
    6648:	84 63 00 0c 	l.lwz r3,0xc(r3)
    664c:	04 00 3b 18 	l.jal 152ac <fprintf>
    6650:	d4 01 80 00 	l.sw 0x0(r1),r16
    6654:	00 00 00 b3 	l.j 6920 <read_scan_script+0x368>
    6658:	a9 62 00 00 	l.ori r11,r2,0x0
    665c:	bc 2e 00 64 	l.sfnei r14,0x64
    6660:	10 00 00 09 	l.bf 6684 <read_scan_script+0xcc>
    6664:	18 60 00 02 	l.movhi r3,0x2
    6668:	18 80 00 02 	l.movhi r4,0x2
    666c:	a8 63 f7 f4 	l.ori r3,r3,0xf7f4
    6670:	a8 84 a9 2e 	l.ori r4,r4,0xa92e
    6674:	84 63 00 00 	l.lwz r3,0x0(r3)
    6678:	84 63 00 0c 	l.lwz r3,0xc(r3)
    667c:	00 00 00 13 	l.j 66c8 <read_scan_script+0x110>
    6680:	d4 01 80 00 	l.sw 0x0(r1),r16
    6684:	84 61 0e 20 	l.lwz r3,0xe20(r1)
    6688:	9c 98 00 08 	l.addi r4,r24,0x8
    668c:	d4 18 18 04 	l.sw 0x4(r24),r3
    6690:	9c 60 00 01 	l.addi r3,r0,0x1
    6694:	d4 01 20 0c 	l.sw 0xc(r1),r4
    6698:	00 00 00 20 	l.j 6718 <read_scan_script+0x160>
    669c:	d4 01 18 04 	l.sw 0x4(r1),r3
    66a0:	bc 24 00 04 	l.sfnei r4,0x4
    66a4:	10 00 00 0f 	l.bf 66e0 <read_scan_script+0x128>
    66a8:	a8 94 00 00 	l.ori r4,r20,0x0
    66ac:	18 60 00 02 	l.movhi r3,0x2
    66b0:	18 80 00 02 	l.movhi r4,0x2
    66b4:	a8 63 f7 f4 	l.ori r3,r3,0xf7f4
    66b8:	a8 84 a9 51 	l.ori r4,r4,0xa951
    66bc:	84 63 00 00 	l.lwz r3,0x0(r3)
    66c0:	84 63 00 0c 	l.lwz r3,0xc(r3)
    66c4:	d4 01 80 00 	l.sw 0x0(r1),r16
    66c8:	04 00 3a f9 	l.jal 152ac <fprintf>
    66cc:	15 00 00 00 	l.nop 0x0
    66d0:	04 00 38 b5 	l.jal 149a4 <fclose>
    66d4:	a8 62 00 00 	l.ori r3,r2,0x0
    66d8:	00 00 00 92 	l.j 6920 <read_scan_script+0x368>
    66dc:	9d 60 00 00 	l.addi r11,r0,0x0
    66e0:	a8 62 00 00 	l.ori r3,r2,0x0
    66e4:	07 ff fe f6 	l.jal 62bc <read_scan_integer>
    66e8:	a8 b2 00 00 	l.ori r5,r18,0x0
    66ec:	bc 0b 00 00 	l.sfeqi r11,0x0
    66f0:	10 00 00 58 	l.bf 6850 <read_scan_script+0x298>
    66f4:	18 60 00 02 	l.movhi r3,0x2
    66f8:	84 81 00 0c 	l.lwz r4,0xc(r1)
    66fc:	84 61 0e 20 	l.lwz r3,0xe20(r1)
    6700:	d4 04 18 00 	l.sw 0x0(r4),r3
    6704:	84 61 00 04 	l.lwz r3,0x4(r1)
    6708:	9c 84 00 04 	l.addi r4,r4,0x4
    670c:	9c 63 00 01 	l.addi r3,r3,0x1
    6710:	d4 01 20 0c 	l.sw 0xc(r1),r4
    6714:	d4 01 18 04 	l.sw 0x4(r1),r3
    6718:	84 61 0e 24 	l.lwz r3,0xe24(r1)
    671c:	bc 03 00 20 	l.sfeqi r3,0x20
    6720:	13 ff ff e0 	l.bf 66a0 <read_scan_script+0xe8>
    6724:	84 81 00 04 	l.lwz r4,0x4(r1)
    6728:	bc 23 00 3a 	l.sfnei r3,0x3a
    672c:	10 00 00 2f 	l.bf 67e8 <read_scan_script+0x230>
    6730:	d4 18 20 00 	l.sw 0x0(r24),r4
    6734:	a8 62 00 00 	l.ori r3,r2,0x0
    6738:	a8 94 00 00 	l.ori r4,r20,0x0
    673c:	07 ff fe e0 	l.jal 62bc <read_scan_integer>
    6740:	a8 b2 00 00 	l.ori r5,r18,0x0
    6744:	bc 0b 00 00 	l.sfeqi r11,0x0
    6748:	10 00 00 42 	l.bf 6850 <read_scan_script+0x298>
    674c:	18 60 00 02 	l.movhi r3,0x2
    6750:	84 61 0e 24 	l.lwz r3,0xe24(r1)
    6754:	bc 23 00 20 	l.sfnei r3,0x20
    6758:	10 00 00 3d 	l.bf 684c <read_scan_script+0x294>
    675c:	a8 b2 00 00 	l.ori r5,r18,0x0
    6760:	84 61 0e 20 	l.lwz r3,0xe20(r1)
    6764:	a8 94 00 00 	l.ori r4,r20,0x0
    6768:	d4 1e 18 00 	l.sw 0x0(r30),r3
    676c:	07 ff fe d4 	l.jal 62bc <read_scan_integer>
    6770:	a8 62 00 00 	l.ori r3,r2,0x0
    6774:	bc 0b 00 00 	l.sfeqi r11,0x0
    6778:	10 00 00 36 	l.bf 6850 <read_scan_script+0x298>
    677c:	18 60 00 02 	l.movhi r3,0x2
    6780:	84 61 0e 24 	l.lwz r3,0xe24(r1)
    6784:	bc 23 00 20 	l.sfnei r3,0x20
    6788:	10 00 00 31 	l.bf 684c <read_scan_script+0x294>
    678c:	a8 b2 00 00 	l.ori r5,r18,0x0
    6790:	84 61 0e 20 	l.lwz r3,0xe20(r1)
    6794:	a8 94 00 00 	l.ori r4,r20,0x0
    6798:	d4 1c 18 00 	l.sw 0x0(r28),r3
    679c:	07 ff fe c8 	l.jal 62bc <read_scan_integer>
    67a0:	a8 62 00 00 	l.ori r3,r2,0x0
    67a4:	bc 0b 00 00 	l.sfeqi r11,0x0
    67a8:	10 00 00 2a 	l.bf 6850 <read_scan_script+0x298>
    67ac:	18 60 00 02 	l.movhi r3,0x2
    67b0:	84 61 0e 24 	l.lwz r3,0xe24(r1)
    67b4:	bc 23 00 20 	l.sfnei r3,0x20
    67b8:	10 00 00 25 	l.bf 684c <read_scan_script+0x294>
    67bc:	a8 b2 00 00 	l.ori r5,r18,0x0
    67c0:	84 61 0e 20 	l.lwz r3,0xe20(r1)
    67c4:	a8 94 00 00 	l.ori r4,r20,0x0
    67c8:	d4 1a 18 00 	l.sw 0x0(r26),r3
    67cc:	07 ff fe bc 	l.jal 62bc <read_scan_integer>
    67d0:	a8 62 00 00 	l.ori r3,r2,0x0
    67d4:	bc 0b 00 00 	l.sfeqi r11,0x0
    67d8:	10 00 00 1d 	l.bf 684c <read_scan_script+0x294>
    67dc:	15 00 00 00 	l.nop 0x0
    67e0:	00 00 00 07 	l.j 67fc <read_scan_script+0x244>
    67e4:	84 61 0e 20 	l.lwz r3,0xe20(r1)
    67e8:	9c 60 00 00 	l.addi r3,r0,0x0
    67ec:	9c 80 00 3f 	l.addi r4,r0,0x3f
    67f0:	d4 1e 18 00 	l.sw 0x0(r30),r3
    67f4:	d4 1c 20 00 	l.sw 0x0(r28),r4
    67f8:	d4 1a 18 00 	l.sw 0x0(r26),r3
    67fc:	84 81 00 08 	l.lwz r4,0x8(r1)
    6800:	9f de 00 24 	l.addi r30,r30,0x24
    6804:	d4 04 18 00 	l.sw 0x0(r4),r3
    6808:	84 81 00 08 	l.lwz r4,0x8(r1)
    680c:	84 61 0e 24 	l.lwz r3,0xe24(r1)
    6810:	9c 84 00 24 	l.addi r4,r4,0x24
    6814:	9f 9c 00 24 	l.addi r28,r28,0x24
    6818:	d4 01 20 08 	l.sw 0x8(r1),r4
    681c:	ac 83 ff ff 	l.xori r4,r3,0xffffffff
    6820:	e0 a0 20 02 	l.sub r5,r0,r4
    6824:	e0 85 20 04 	l.or r4,r5,r4
    6828:	bd 64 00 00 	l.sfgesi r4,0x0
    682c:	10 00 00 10 	l.bf 686c <read_scan_script+0x2b4>
    6830:	9f 5a 00 24 	l.addi r26,r26,0x24
    6834:	ac 63 00 3b 	l.xori r3,r3,0x3b
    6838:	e0 80 18 02 	l.sub r4,r0,r3
    683c:	e0 64 18 04 	l.or r3,r4,r3
    6840:	bd 63 00 00 	l.sfgesi r3,0x0
    6844:	10 00 00 0b 	l.bf 6870 <read_scan_script+0x2b8>
    6848:	9f 18 00 24 	l.addi r24,r24,0x24
    684c:	18 60 00 02 	l.movhi r3,0x2
    6850:	18 80 00 02 	l.movhi r4,0x2
    6854:	a8 63 f7 f4 	l.ori r3,r3,0xf7f4
    6858:	a8 84 a9 7d 	l.ori r4,r4,0xa97d
    685c:	84 63 00 00 	l.lwz r3,0x0(r3)
    6860:	84 63 00 0c 	l.lwz r3,0xc(r3)
    6864:	03 ff ff 99 	l.j 66c8 <read_scan_script+0x110>
    6868:	d4 01 80 00 	l.sw 0x0(r1),r16
    686c:	9f 18 00 24 	l.addi r24,r24,0x24
    6870:	9d ce 00 01 	l.addi r14,r14,0x1
    6874:	a8 62 00 00 	l.ori r3,r2,0x0
    6878:	a8 94 00 00 	l.ori r4,r20,0x0
    687c:	07 ff fe 90 	l.jal 62bc <read_scan_integer>
    6880:	a8 b2 00 00 	l.ori r5,r18,0x0
    6884:	bc 2b 00 00 	l.sfnei r11,0x0
    6888:	13 ff ff 75 	l.bf 665c <read_scan_script+0xa4>
    688c:	d4 01 58 04 	l.sw 0x4(r1),r11
    6890:	84 61 0e 24 	l.lwz r3,0xe24(r1)
    6894:	bc 03 ff ff 	l.sfeqi r3,0xffffffff
    6898:	10 00 00 0e 	l.bf 68d0 <read_scan_script+0x318>
    689c:	bc 0e 00 00 	l.sfeqi r14,0x0
    68a0:	18 60 00 02 	l.movhi r3,0x2
    68a4:	18 80 00 02 	l.movhi r4,0x2
    68a8:	a8 63 f7 f4 	l.ori r3,r3,0xf7f4
    68ac:	a8 84 a8 ed 	l.ori r4,r4,0xa8ed
    68b0:	84 63 00 00 	l.lwz r3,0x0(r3)
    68b4:	84 63 00 0c 	l.lwz r3,0xc(r3)
    68b8:	04 00 3a 7d 	l.jal 152ac <fprintf>
    68bc:	d4 01 80 00 	l.sw 0x0(r1),r16
    68c0:	04 00 38 39 	l.jal 149a4 <fclose>
    68c4:	a8 62 00 00 	l.ori r3,r2,0x0
    68c8:	00 00 00 16 	l.j 6920 <read_scan_script+0x368>
    68cc:	85 61 00 04 	l.lwz r11,0x4(r1)
    68d0:	10 00 00 11 	l.bf 6914 <read_scan_script+0x35c>
    68d4:	b8 6e 00 05 	l.slli r3,r14,0x5
    68d8:	ba 0e 00 02 	l.slli r16,r14,0x2
    68dc:	9c 80 00 01 	l.addi r4,r0,0x1
    68e0:	e2 10 18 00 	l.add r16,r16,r3
    68e4:	84 76 00 04 	l.lwz r3,0x4(r22)
    68e8:	a8 b0 00 00 	l.ori r5,r16,0x0
    68ec:	85 63 00 00 	l.lwz r11,0x0(r3)
    68f0:	48 00 58 00 	l.jalr r11
    68f4:	a8 76 00 00 	l.ori r3,r22,0x0
    68f8:	9c 81 00 10 	l.addi r4,r1,0x10
    68fc:	aa 4b 00 00 	l.ori r18,r11,0x0
    6900:	a8 6b 00 00 	l.ori r3,r11,0x0
    6904:	04 00 43 ed 	l.jal 178b8 <memcpy>
    6908:	a8 b0 00 00 	l.ori r5,r16,0x0
    690c:	d4 16 90 a4 	l.sw 0xa4(r22),r18
    6910:	d4 16 70 a0 	l.sw 0xa0(r22),r14
    6914:	04 00 38 24 	l.jal 149a4 <fclose>
    6918:	a8 62 00 00 	l.ori r3,r2,0x0
    691c:	9d 60 00 01 	l.addi r11,r0,0x1
    6920:	9c 21 0e 54 	l.addi r1,r1,0xe54
    6924:	85 21 ff fc 	l.lwz r9,0xfffffffc(r1)
    6928:	84 41 ff d4 	l.lwz r2,0xffffffd4(r1)
    692c:	85 c1 ff d8 	l.lwz r14,0xffffffd8(r1)
    6930:	86 01 ff dc 	l.lwz r16,0xffffffdc(r1)
    6934:	86 41 ff e0 	l.lwz r18,0xffffffe0(r1)
    6938:	86 81 ff e4 	l.lwz r20,0xffffffe4(r1)
    693c:	86 c1 ff e8 	l.lwz r22,0xffffffe8(r1)
    6940:	87 01 ff ec 	l.lwz r24,0xffffffec(r1)
    6944:	87 41 ff f0 	l.lwz r26,0xfffffff0(r1)
    6948:	87 81 ff f4 	l.lwz r28,0xfffffff4(r1)
    694c:	44 00 48 00 	l.jr r9
    6950:	87 c1 ff f8 	l.lwz r30,0xfffffff8(r1)

00006954 <set_quant_slots>:
    6954:	d7 e1 17 e8 	l.sw 0xffffffe8(r1),r2
    6958:	d7 e1 77 ec 	l.sw 0xffffffec(r1),r14
    695c:	d7 e1 87 f0 	l.sw 0xfffffff0(r1),r16
    6960:	d7 e1 97 f4 	l.sw 0xfffffff4(r1),r18
    6964:	d7 e1 a7 f8 	l.sw 0xfffffff8(r1),r20
    6968:	d7 e1 4f fc 	l.sw 0xfffffffc(r1),r9
    696c:	9c 40 00 00 	l.addi r2,r0,0x0
    6970:	9c 21 ff d8 	l.addi r1,r1,0xffffffd8
    6974:	aa 03 00 00 	l.ori r16,r3,0x0
    6978:	a9 c4 00 00 	l.ori r14,r4,0x0
    697c:	d4 01 10 08 	l.sw 0x8(r1),r2
    6980:	9e 81 00 08 	l.addi r20,r1,0x8
    6984:	9e 41 00 0f 	l.addi r18,r1,0xf
    6988:	90 6e 00 00 	l.lbs r3,0x0(r14)
    698c:	bc 03 00 00 	l.sfeqi r3,0x0
    6990:	10 00 00 28 	l.bf 6a30 <set_quant_slots+0xdc>
    6994:	84 81 00 08 	l.lwz r4,0x8(r1)
    6998:	9c 60 00 2c 	l.addi r3,r0,0x2c
    699c:	18 80 00 02 	l.movhi r4,0x2
    69a0:	d8 01 18 0f 	l.sb 0xf(r1),r3
    69a4:	a8 84 a9 d4 	l.ori r4,r4,0xa9d4
    69a8:	a8 6e 00 00 	l.ori r3,r14,0x0
    69ac:	d4 01 a0 00 	l.sw 0x0(r1),r20
    69b0:	04 00 49 53 	l.jal 18efc <sscanf>
    69b4:	d4 01 90 04 	l.sw 0x4(r1),r18
    69b8:	bd ab 00 00 	l.sflesi r11,0x0
    69bc:	10 00 00 26 	l.bf 6a54 <set_quant_slots+0x100>
    69c0:	90 61 00 0f 	l.lbs r3,0xf(r1)
    69c4:	bc 23 00 2c 	l.sfnei r3,0x2c
    69c8:	10 00 00 23 	l.bf 6a54 <set_quant_slots+0x100>
    69cc:	84 61 00 08 	l.lwz r3,0x8(r1)
    69d0:	bc a3 00 03 	l.sfleui r3,0x3
    69d4:	10 00 00 0c 	l.bf 6a04 <set_quant_slots+0xb0>
    69d8:	18 80 00 02 	l.movhi r4,0x2
    69dc:	18 40 00 02 	l.movhi r2,0x2
    69e0:	a8 42 f7 f4 	l.ori r2,r2,0xf7f4
    69e4:	a8 84 a9 a3 	l.ori r4,r4,0xa9a3
    69e8:	84 42 00 00 	l.lwz r2,0x0(r2)
    69ec:	84 62 00 0c 	l.lwz r3,0xc(r2)
    69f0:	9c 40 00 03 	l.addi r2,r0,0x3
    69f4:	04 00 3a 2e 	l.jal 152ac <fprintf>
    69f8:	d4 01 10 00 	l.sw 0x0(r1),r2
    69fc:	00 00 00 17 	l.j 6a58 <set_quant_slots+0x104>
    6a00:	9d 60 00 00 	l.addi r11,r0,0x0
    6a04:	84 90 00 3c 	l.lwz r4,0x3c(r16)
    6a08:	e0 84 10 00 	l.add r4,r4,r2
    6a0c:	d4 04 18 10 	l.sw 0x10(r4),r3
    6a10:	90 6e 00 00 	l.lbs r3,0x0(r14)
    6a14:	bc 03 00 00 	l.sfeqi r3,0x0
    6a18:	10 00 00 09 	l.bf 6a3c <set_quant_slots+0xe8>
    6a1c:	bc 23 00 2c 	l.sfnei r3,0x2c
    6a20:	13 ff ff fc 	l.bf 6a10 <set_quant_slots+0xbc>
    6a24:	9d ce 00 01 	l.addi r14,r14,0x1
    6a28:	00 00 00 06 	l.j 6a40 <set_quant_slots+0xec>
    6a2c:	9c 42 00 54 	l.addi r2,r2,0x54
    6a30:	84 70 00 3c 	l.lwz r3,0x3c(r16)
    6a34:	e0 63 10 00 	l.add r3,r3,r2
    6a38:	d4 03 20 10 	l.sw 0x10(r3),r4
    6a3c:	9c 42 00 54 	l.addi r2,r2,0x54
    6a40:	bc 22 03 48 	l.sfnei r2,0x348
    6a44:	13 ff ff d1 	l.bf 6988 <set_quant_slots+0x34>
    6a48:	9d 60 00 01 	l.addi r11,r0,0x1
    6a4c:	00 00 00 04 	l.j 6a5c <set_quant_slots+0x108>
    6a50:	9c 21 00 28 	l.addi r1,r1,0x28
    6a54:	9d 60 00 00 	l.addi r11,r0,0x0
    6a58:	9c 21 00 28 	l.addi r1,r1,0x28
    6a5c:	85 21 ff fc 	l.lwz r9,0xfffffffc(r1)
    6a60:	84 41 ff e8 	l.lwz r2,0xffffffe8(r1)
    6a64:	85 c1 ff ec 	l.lwz r14,0xffffffec(r1)
    6a68:	86 01 ff f0 	l.lwz r16,0xfffffff0(r1)
    6a6c:	86 41 ff f4 	l.lwz r18,0xfffffff4(r1)
    6a70:	44 00 48 00 	l.jr r9
    6a74:	86 81 ff f8 	l.lwz r20,0xfffffff8(r1)

00006a78 <set_sample_factors>:
    6a78:	d7 e1 17 dc 	l.sw 0xffffffdc(r1),r2
    6a7c:	d7 e1 77 e0 	l.sw 0xffffffe0(r1),r14
    6a80:	d7 e1 87 e4 	l.sw 0xffffffe4(r1),r16
    6a84:	d7 e1 97 e8 	l.sw 0xffffffe8(r1),r18
    6a88:	d7 e1 a7 ec 	l.sw 0xffffffec(r1),r20
    6a8c:	d7 e1 b7 f0 	l.sw 0xfffffff0(r1),r22
    6a90:	d7 e1 c7 f4 	l.sw 0xfffffff4(r1),r24
    6a94:	d7 e1 d7 f8 	l.sw 0xfffffff8(r1),r26
    6a98:	d7 e1 4f fc 	l.sw 0xfffffffc(r1),r9
    6a9c:	9c 21 ff c0 	l.addi r1,r1,0xffffffc0
    6aa0:	aa 03 00 00 	l.ori r16,r3,0x0
    6aa4:	a9 c4 00 00 	l.ori r14,r4,0x0
    6aa8:	9c 40 00 00 	l.addi r2,r0,0x0
    6aac:	9e 40 00 01 	l.addi r18,r0,0x1
    6ab0:	9f 41 00 14 	l.addi r26,r1,0x14
    6ab4:	9f 01 00 1b 	l.addi r24,r1,0x1b
    6ab8:	9e c1 00 10 	l.addi r22,r1,0x10
    6abc:	9e 81 00 1a 	l.addi r20,r1,0x1a
    6ac0:	90 6e 00 00 	l.lbs r3,0x0(r14)
    6ac4:	bc 03 00 00 	l.sfeqi r3,0x0
    6ac8:	10 00 00 39 	l.bf 6bac <set_sample_factors+0x134>
    6acc:	9c 60 00 2c 	l.addi r3,r0,0x2c
    6ad0:	18 80 00 02 	l.movhi r4,0x2
    6ad4:	d8 01 18 1a 	l.sb 0x1a(r1),r3
    6ad8:	a8 84 a9 d0 	l.ori r4,r4,0xa9d0
    6adc:	a8 6e 00 00 	l.ori r3,r14,0x0
    6ae0:	d4 01 d0 00 	l.sw 0x0(r1),r26
    6ae4:	d4 01 c0 04 	l.sw 0x4(r1),r24
    6ae8:	d4 01 b0 08 	l.sw 0x8(r1),r22
    6aec:	04 00 49 04 	l.jal 18efc <sscanf>
    6af0:	d4 01 a0 0c 	l.sw 0xc(r1),r20
    6af4:	bd ab 00 02 	l.sflesi r11,0x2
    6af8:	10 00 00 37 	l.bf 6bd4 <set_sample_factors+0x15c>
    6afc:	90 61 00 1b 	l.lbs r3,0x1b(r1)
    6b00:	ac 83 00 58 	l.xori r4,r3,0x58
    6b04:	a4 84 00 ff 	l.andi r4,r4,0xff
    6b08:	bc 04 00 00 	l.sfeqi r4,0x0
    6b0c:	10 00 00 06 	l.bf 6b24 <set_sample_factors+0xac>
    6b10:	ac 63 00 78 	l.xori r3,r3,0x78
    6b14:	a4 63 00 ff 	l.andi r3,r3,0xff
    6b18:	bc 23 00 00 	l.sfnei r3,0x0
    6b1c:	10 00 00 2f 	l.bf 6bd8 <set_sample_factors+0x160>
    6b20:	9d 60 00 00 	l.addi r11,r0,0x0
    6b24:	90 61 00 1a 	l.lbs r3,0x1a(r1)
    6b28:	bc 23 00 2c 	l.sfnei r3,0x2c
    6b2c:	10 00 00 2a 	l.bf 6bd4 <set_sample_factors+0x15c>
    6b30:	84 a1 00 14 	l.lwz r5,0x14(r1)
    6b34:	9c 65 ff ff 	l.addi r3,r5,0xffffffff
    6b38:	bc 43 00 03 	l.sfgtui r3,0x3
    6b3c:	10 00 00 07 	l.bf 6b58 <set_sample_factors+0xe0>
    6b40:	84 81 00 10 	l.lwz r4,0x10(r1)
    6b44:	bd a4 00 00 	l.sflesi r4,0x0
    6b48:	10 00 00 04 	l.bf 6b58 <set_sample_factors+0xe0>
    6b4c:	bd a4 00 04 	l.sflesi r4,0x4
    6b50:	10 00 00 0b 	l.bf 6b7c <set_sample_factors+0x104>
    6b54:	15 00 00 00 	l.nop 0x0
    6b58:	18 40 00 02 	l.movhi r2,0x2
    6b5c:	18 60 00 02 	l.movhi r3,0x2
    6b60:	a8 42 f7 f4 	l.ori r2,r2,0xf7f4
    6b64:	a8 63 a9 d9 	l.ori r3,r3,0xa9d9
    6b68:	84 42 00 00 	l.lwz r2,0x0(r2)
    6b6c:	04 00 3a 09 	l.jal 15390 <fputs>
    6b70:	84 82 00 0c 	l.lwz r4,0xc(r2)
    6b74:	00 00 00 19 	l.j 6bd8 <set_sample_factors+0x160>
    6b78:	9d 60 00 00 	l.addi r11,r0,0x0
    6b7c:	84 70 00 3c 	l.lwz r3,0x3c(r16)
    6b80:	e0 63 10 00 	l.add r3,r3,r2
    6b84:	d4 03 28 08 	l.sw 0x8(r3),r5
    6b88:	d4 03 20 0c 	l.sw 0xc(r3),r4
    6b8c:	90 6e 00 00 	l.lbs r3,0x0(r14)
    6b90:	bc 03 00 00 	l.sfeqi r3,0x0
    6b94:	10 00 00 0a 	l.bf 6bbc <set_sample_factors+0x144>
    6b98:	bc 23 00 2c 	l.sfnei r3,0x2c
    6b9c:	13 ff ff fc 	l.bf 6b8c <set_sample_factors+0x114>
    6ba0:	9d ce 00 01 	l.addi r14,r14,0x1
    6ba4:	00 00 00 07 	l.j 6bc0 <set_sample_factors+0x148>
    6ba8:	9c 42 00 54 	l.addi r2,r2,0x54
    6bac:	84 70 00 3c 	l.lwz r3,0x3c(r16)
    6bb0:	e0 63 10 00 	l.add r3,r3,r2
    6bb4:	d4 03 90 08 	l.sw 0x8(r3),r18
    6bb8:	d4 03 90 0c 	l.sw 0xc(r3),r18
    6bbc:	9c 42 00 54 	l.addi r2,r2,0x54
    6bc0:	bc 22 03 48 	l.sfnei r2,0x348
    6bc4:	13 ff ff bf 	l.bf 6ac0 <set_sample_factors+0x48>
    6bc8:	9d 60 00 01 	l.addi r11,r0,0x1
    6bcc:	00 00 00 04 	l.j 6bdc <set_sample_factors+0x164>
    6bd0:	9c 21 00 40 	l.addi r1,r1,0x40
    6bd4:	9d 60 00 00 	l.addi r11,r0,0x0
    6bd8:	9c 21 00 40 	l.addi r1,r1,0x40
    6bdc:	85 21 ff fc 	l.lwz r9,0xfffffffc(r1)
    6be0:	84 41 ff dc 	l.lwz r2,0xffffffdc(r1)
    6be4:	85 c1 ff e0 	l.lwz r14,0xffffffe0(r1)
    6be8:	86 01 ff e4 	l.lwz r16,0xffffffe4(r1)
    6bec:	86 41 ff e8 	l.lwz r18,0xffffffe8(r1)
    6bf0:	86 81 ff ec 	l.lwz r20,0xffffffec(r1)
    6bf4:	86 c1 ff f0 	l.lwz r22,0xfffffff0(r1)
    6bf8:	87 01 ff f4 	l.lwz r24,0xfffffff4(r1)
    6bfc:	44 00 48 00 	l.jr r9
    6c00:	87 41 ff f8 	l.lwz r26,0xfffffff8(r1)

00006c04 <keymatch>:
    6c04:	18 c0 00 02 	l.movhi r6,0x2
    6c08:	9c e0 00 00 	l.addi r7,r0,0x0
    6c0c:	a8 c6 f7 f0 	l.ori r6,r6,0xf7f0
    6c10:	00 00 00 0f 	l.j 6c4c <keymatch+0x48>
    6c14:	85 06 00 00 	l.lwz r8,0x0(r6)
    6c18:	91 6b 00 00 	l.lbs r11,0x0(r11)
    6c1c:	bc 0b 00 00 	l.sfeqi r11,0x0
    6c20:	10 00 00 16 	l.bf 6c78 <keymatch+0x74>
    6c24:	e1 88 30 00 	l.add r12,r8,r6
    6c28:	8d 8c 00 01 	l.lbz r12,0x1(r12)
    6c2c:	a5 8c 00 03 	l.andi r12,r12,0x3
    6c30:	bc 2c 00 01 	l.sfnei r12,0x1
    6c34:	10 00 00 04 	l.bf 6c44 <keymatch+0x40>
    6c38:	e4 26 58 00 	l.sfne r6,r11
    6c3c:	9c c6 00 20 	l.addi r6,r6,0x20
    6c40:	e4 26 58 00 	l.sfne r6,r11
    6c44:	10 00 00 0c 	l.bf 6c74 <keymatch+0x70>
    6c48:	9c e7 00 01 	l.addi r7,r7,0x1
    6c4c:	e0 c3 38 00 	l.add r6,r3,r7
    6c50:	90 c6 00 00 	l.lbs r6,0x0(r6)
    6c54:	bc 26 00 00 	l.sfnei r6,0x0
    6c58:	13 ff ff f0 	l.bf 6c18 <keymatch+0x14>
    6c5c:	e1 64 38 00 	l.add r11,r4,r7
    6c60:	e5 67 28 00 	l.sfges r7,r5
    6c64:	10 00 00 05 	l.bf 6c78 <keymatch+0x74>
    6c68:	9d 60 00 01 	l.addi r11,r0,0x1
    6c6c:	00 00 00 03 	l.j 6c78 <keymatch+0x74>
    6c70:	a9 66 00 00 	l.ori r11,r6,0x0
    6c74:	9d 60 00 00 	l.addi r11,r0,0x0
    6c78:	44 00 48 00 	l.jr r9
    6c7c:	15 00 00 00 	l.nop 0x0

00006c80 <read_stdin>:
    6c80:	18 60 00 02 	l.movhi r3,0x2
    6c84:	a8 63 f7 f4 	l.ori r3,r3,0xf7f4
    6c88:	84 63 00 00 	l.lwz r3,0x0(r3)
    6c8c:	44 00 48 00 	l.jr r9
    6c90:	85 63 00 04 	l.lwz r11,0x4(r3)

00006c94 <write_stdout>:
    6c94:	18 60 00 02 	l.movhi r3,0x2
    6c98:	a8 63 f7 f4 	l.ori r3,r3,0xf7f4
    6c9c:	84 63 00 00 	l.lwz r3,0x0(r3)
    6ca0:	44 00 48 00 	l.jr r9
    6ca4:	85 63 00 08 	l.lwz r11,0x8(r3)

00006ca8 <jpeg_CreateCompress>:
    6ca8:	d7 e1 77 f8 	l.sw 0xfffffff8(r1),r14
    6cac:	a9 c5 00 00 	l.ori r14,r5,0x0
    6cb0:	9c a0 00 00 	l.addi r5,r0,0x0
    6cb4:	d7 e1 17 f4 	l.sw 0xfffffff4(r1),r2
    6cb8:	d7 e1 4f fc 	l.sw 0xfffffffc(r1),r9
    6cbc:	d4 03 28 04 	l.sw 0x4(r3),r5
    6cc0:	9c 21 ff f4 	l.addi r1,r1,0xfffffff4
    6cc4:	bc 04 00 3d 	l.sfeqi r4,0x3d
    6cc8:	10 00 00 0d 	l.bf 6cfc <jpeg_CreateCompress+0x54>
    6ccc:	a8 43 00 00 	l.ori r2,r3,0x0
    6cd0:	84 a3 00 00 	l.lwz r5,0x0(r3)
    6cd4:	9c c0 00 0a 	l.addi r6,r0,0xa
    6cd8:	d4 05 30 14 	l.sw 0x14(r5),r6
    6cdc:	9c c0 00 3d 	l.addi r6,r0,0x3d
    6ce0:	d4 05 30 18 	l.sw 0x18(r5),r6
    6ce4:	84 a3 00 00 	l.lwz r5,0x0(r3)
    6ce8:	d4 05 20 1c 	l.sw 0x1c(r5),r4
    6cec:	84 83 00 00 	l.lwz r4,0x0(r3)
    6cf0:	84 84 00 00 	l.lwz r4,0x0(r4)
    6cf4:	48 00 20 00 	l.jalr r4
    6cf8:	15 00 00 00 	l.nop 0x0
    6cfc:	bc 0e 01 68 	l.sfeqi r14,0x168
    6d00:	10 00 00 0c 	l.bf 6d30 <jpeg_CreateCompress+0x88>
    6d04:	9c 80 00 13 	l.addi r4,r0,0x13
    6d08:	84 62 00 00 	l.lwz r3,0x0(r2)
    6d0c:	d4 03 20 14 	l.sw 0x14(r3),r4
    6d10:	9c 80 01 68 	l.addi r4,r0,0x168
    6d14:	d4 03 20 18 	l.sw 0x18(r3),r4
    6d18:	84 62 00 00 	l.lwz r3,0x0(r2)
    6d1c:	d4 03 70 1c 	l.sw 0x1c(r3),r14
    6d20:	84 62 00 00 	l.lwz r3,0x0(r2)
    6d24:	84 83 00 00 	l.lwz r4,0x0(r3)
    6d28:	48 00 20 00 	l.jalr r4
    6d2c:	a8 62 00 00 	l.ori r3,r2,0x0
    6d30:	a8 62 00 00 	l.ori r3,r2,0x0
    6d34:	9c 80 00 00 	l.addi r4,r0,0x0
    6d38:	9c a0 01 68 	l.addi r5,r0,0x168
    6d3c:	04 00 43 82 	l.jal 17b44 <memset>
    6d40:	85 c2 00 00 	l.lwz r14,0x0(r2)
    6d44:	a8 62 00 00 	l.ori r3,r2,0x0
    6d48:	04 00 2a 86 	l.jal 11760 <jinit_memory_mgr>
    6d4c:	d4 02 70 00 	l.sw 0x0(r2),r14
    6d50:	9c 60 00 00 	l.addi r3,r0,0x0
    6d54:	d4 02 18 08 	l.sw 0x8(r2),r3
    6d58:	d4 02 18 14 	l.sw 0x14(r2),r3
    6d5c:	d4 02 18 3c 	l.sw 0x3c(r2),r3
    6d60:	d4 02 18 40 	l.sw 0x40(r2),r3
    6d64:	d4 02 18 44 	l.sw 0x44(r2),r3
    6d68:	d4 02 18 48 	l.sw 0x48(r2),r3
    6d6c:	d4 02 18 4c 	l.sw 0x4c(r2),r3
    6d70:	d4 02 18 50 	l.sw 0x50(r2),r3
    6d74:	d4 02 18 60 	l.sw 0x60(r2),r3
    6d78:	d4 02 18 54 	l.sw 0x54(r2),r3
    6d7c:	d4 02 18 64 	l.sw 0x64(r2),r3
    6d80:	d4 02 18 58 	l.sw 0x58(r2),r3
    6d84:	d4 02 18 68 	l.sw 0x68(r2),r3
    6d88:	d4 02 18 5c 	l.sw 0x5c(r2),r3
    6d8c:	d4 02 18 6c 	l.sw 0x6c(r2),r3
    6d90:	18 60 00 02 	l.movhi r3,0x2
    6d94:	a8 63 aa 00 	l.ori r3,r3,0xaa00
    6d98:	84 83 00 00 	l.lwz r4,0x0(r3)
    6d9c:	84 a3 00 04 	l.lwz r5,0x4(r3)
    6da0:	9c 60 00 64 	l.addi r3,r0,0x64
    6da4:	d4 02 20 28 	l.sw 0x28(r2),r4
    6da8:	d4 02 28 2c 	l.sw 0x2c(r2),r5
    6dac:	d4 02 18 10 	l.sw 0x10(r2),r3
    6db0:	9c 21 00 0c 	l.addi r1,r1,0xc
    6db4:	85 21 ff fc 	l.lwz r9,0xfffffffc(r1)
    6db8:	84 41 ff f4 	l.lwz r2,0xfffffff4(r1)
    6dbc:	44 00 48 00 	l.jr r9
    6dc0:	85 c1 ff f8 	l.lwz r14,0xfffffff8(r1)

00006dc4 <jpeg_destroy_compress>:
    6dc4:	d7 e1 4f fc 	l.sw 0xfffffffc(r1),r9
    6dc8:	9c 21 ff fc 	l.addi r1,r1,0xfffffffc
    6dcc:	9c 21 00 04 	l.addi r1,r1,0x4
    6dd0:	85 21 ff fc 	l.lwz r9,0xfffffffc(r1)
    6dd4:	00 00 24 92 	l.j 1001c <jpeg_destroy>
    6dd8:	15 00 00 00 	l.nop 0x0

00006ddc <jpeg_abort_compress>:
    6ddc:	d7 e1 4f fc 	l.sw 0xfffffffc(r1),r9
    6de0:	9c 21 ff fc 	l.addi r1,r1,0xfffffffc
    6de4:	9c 21 00 04 	l.addi r1,r1,0x4
    6de8:	85 21 ff fc 	l.lwz r9,0xfffffffc(r1)
    6dec:	00 00 24 7a 	l.j ffd4 <jpeg_abort>
    6df0:	15 00 00 00 	l.nop 0x0

00006df4 <jpeg_suppress_tables>:
    6df4:	9c c3 00 40 	l.addi r6,r3,0x40
    6df8:	9c a0 00 04 	l.addi r5,r0,0x4
    6dfc:	84 e6 00 00 	l.lwz r7,0x0(r6)
    6e00:	bc 07 00 00 	l.sfeqi r7,0x0
    6e04:	10 00 00 03 	l.bf 6e10 <jpeg_suppress_tables+0x1c>
    6e08:	15 00 00 00 	l.nop 0x0
    6e0c:	d4 07 20 80 	l.sw 0x80(r7),r4
    6e10:	9c a5 ff ff 	l.addi r5,r5,0xffffffff
    6e14:	bc 25 00 00 	l.sfnei r5,0x0
    6e18:	13 ff ff f9 	l.bf 6dfc <jpeg_suppress_tables+0x8>
    6e1c:	9c c6 00 04 	l.addi r6,r6,0x4
    6e20:	9c 63 00 50 	l.addi r3,r3,0x50
    6e24:	84 c3 00 00 	l.lwz r6,0x0(r3)
    6e28:	bc 06 00 00 	l.sfeqi r6,0x0
    6e2c:	10 00 00 03 	l.bf 6e38 <jpeg_suppress_tables+0x44>
    6e30:	15 00 00 00 	l.nop 0x0
    6e34:	d4 06 21 14 	l.sw 0x114(r6),r4
    6e38:	84 c3 00 10 	l.lwz r6,0x10(r3)
    6e3c:	bc 06 00 00 	l.sfeqi r6,0x0
    6e40:	10 00 00 03 	l.bf 6e4c <jpeg_suppress_tables+0x58>
    6e44:	15 00 00 00 	l.nop 0x0
    6e48:	d4 06 21 14 	l.sw 0x114(r6),r4
    6e4c:	9c a5 00 01 	l.addi r5,r5,0x1
    6e50:	bc 25 00 04 	l.sfnei r5,0x4
    6e54:	13 ff ff f4 	l.bf 6e24 <jpeg_suppress_tables+0x30>
    6e58:	9c 63 00 04 	l.addi r3,r3,0x4
    6e5c:	44 00 48 00 	l.jr r9
    6e60:	15 00 00 00 	l.nop 0x0

00006e64 <jpeg_finish_compress>:
    6e64:	84 83 00 10 	l.lwz r4,0x10(r3)
    6e68:	d7 e1 17 f0 	l.sw 0xfffffff0(r1),r2
    6e6c:	d7 e1 4f fc 	l.sw 0xfffffffc(r1),r9
    6e70:	d7 e1 77 f4 	l.sw 0xfffffff4(r1),r14
    6e74:	d7 e1 87 f8 	l.sw 0xfffffff8(r1),r16
    6e78:	9c a4 ff 9b 	l.addi r5,r4,0xffffff9b
    6e7c:	9c 21 ff f0 	l.addi r1,r1,0xfffffff0
    6e80:	bc 45 00 01 	l.sfgtui r5,0x1
    6e84:	10 00 00 10 	l.bf 6ec4 <jpeg_finish_compress+0x60>
    6e88:	a8 43 00 00 	l.ori r2,r3,0x0
    6e8c:	84 a3 00 d8 	l.lwz r5,0xd8(r3)
    6e90:	84 83 00 1c 	l.lwz r4,0x1c(r3)
    6e94:	e4 65 20 00 	l.sfgeu r5,r4
    6e98:	10 00 00 07 	l.bf 6eb4 <jpeg_finish_compress+0x50>
    6e9c:	9c a0 00 42 	l.addi r5,r0,0x42
    6ea0:	84 83 00 00 	l.lwz r4,0x0(r3)
    6ea4:	d4 04 28 14 	l.sw 0x14(r4),r5
    6ea8:	84 84 00 00 	l.lwz r4,0x0(r4)
    6eac:	48 00 20 00 	l.jalr r4
    6eb0:	15 00 00 00 	l.nop 0x0
    6eb4:	84 62 01 44 	l.lwz r3,0x144(r2)
    6eb8:	84 83 00 08 	l.lwz r4,0x8(r3)
    6ebc:	00 00 00 0a 	l.j 6ee4 <jpeg_finish_compress+0x80>
    6ec0:	a8 62 00 00 	l.ori r3,r2,0x0
    6ec4:	bc 04 00 67 	l.sfeqi r4,0x67
    6ec8:	10 00 00 31 	l.bf 6f8c <jpeg_finish_compress+0x128>
    6ecc:	9c c0 00 12 	l.addi r6,r0,0x12
    6ed0:	84 a3 00 00 	l.lwz r5,0x0(r3)
    6ed4:	d4 05 20 18 	l.sw 0x18(r5),r4
    6ed8:	d4 05 30 14 	l.sw 0x14(r5),r6
    6edc:	84 83 00 00 	l.lwz r4,0x0(r3)
    6ee0:	84 84 00 00 	l.lwz r4,0x0(r4)
    6ee4:	48 00 20 00 	l.jalr r4
    6ee8:	9e 00 00 16 	l.addi r16,r0,0x16
    6eec:	00 00 00 2a 	l.j 6f94 <jpeg_finish_compress+0x130>
    6ef0:	84 62 01 44 	l.lwz r3,0x144(r2)
    6ef4:	84 83 00 00 	l.lwz r4,0x0(r3)
    6ef8:	48 00 20 00 	l.jalr r4
    6efc:	a8 62 00 00 	l.ori r3,r2,0x0
    6f00:	00 00 00 1a 	l.j 6f68 <jpeg_finish_compress+0x104>
    6f04:	84 82 00 e8 	l.lwz r4,0xe8(r2)
    6f08:	84 62 00 08 	l.lwz r3,0x8(r2)
    6f0c:	bc 03 00 00 	l.sfeqi r3,0x0
    6f10:	10 00 00 07 	l.bf 6f2c <jpeg_finish_compress+0xc8>
    6f14:	15 00 00 00 	l.nop 0x0
    6f18:	d4 03 20 08 	l.sw 0x8(r3),r4
    6f1c:	d4 03 70 04 	l.sw 0x4(r3),r14
    6f20:	84 83 00 00 	l.lwz r4,0x0(r3)
    6f24:	48 00 20 00 	l.jalr r4
    6f28:	a8 62 00 00 	l.ori r3,r2,0x0
    6f2c:	84 62 01 50 	l.lwz r3,0x150(r2)
    6f30:	9c 80 00 00 	l.addi r4,r0,0x0
    6f34:	85 63 00 04 	l.lwz r11,0x4(r3)
    6f38:	48 00 58 00 	l.jalr r11
    6f3c:	a8 62 00 00 	l.ori r3,r2,0x0
    6f40:	bc 2b 00 00 	l.sfnei r11,0x0
    6f44:	10 00 00 07 	l.bf 6f60 <jpeg_finish_compress+0xfc>
    6f48:	15 00 00 00 	l.nop 0x0
    6f4c:	84 62 00 00 	l.lwz r3,0x0(r2)
    6f50:	d4 03 80 14 	l.sw 0x14(r3),r16
    6f54:	84 83 00 00 	l.lwz r4,0x0(r3)
    6f58:	48 00 20 00 	l.jalr r4
    6f5c:	a8 62 00 00 	l.ori r3,r2,0x0
    6f60:	9d ce 00 01 	l.addi r14,r14,0x1
    6f64:	84 82 00 e8 	l.lwz r4,0xe8(r2)
    6f68:	e4 8e 20 00 	l.sfltu r14,r4
    6f6c:	13 ff ff e7 	l.bf 6f08 <jpeg_finish_compress+0xa4>
    6f70:	15 00 00 00 	l.nop 0x0
    6f74:	84 62 01 44 	l.lwz r3,0x144(r2)
    6f78:	84 83 00 08 	l.lwz r4,0x8(r3)
    6f7c:	48 00 20 00 	l.jalr r4
    6f80:	a8 62 00 00 	l.ori r3,r2,0x0
    6f84:	00 00 00 04 	l.j 6f94 <jpeg_finish_compress+0x130>
    6f88:	84 62 01 44 	l.lwz r3,0x144(r2)
    6f8c:	9e 00 00 16 	l.addi r16,r0,0x16
    6f90:	84 62 01 44 	l.lwz r3,0x144(r2)
    6f94:	85 c3 00 10 	l.lwz r14,0x10(r3)
    6f98:	bc 0e 00 00 	l.sfeqi r14,0x0
    6f9c:	13 ff ff d6 	l.bf 6ef4 <jpeg_finish_compress+0x90>
    6fa0:	15 00 00 00 	l.nop 0x0
    6fa4:	84 62 01 54 	l.lwz r3,0x154(r2)
    6fa8:	84 83 00 10 	l.lwz r4,0x10(r3)
    6fac:	48 00 20 00 	l.jalr r4
    6fb0:	a8 62 00 00 	l.ori r3,r2,0x0
    6fb4:	84 62 00 14 	l.lwz r3,0x14(r2)
    6fb8:	84 83 00 10 	l.lwz r4,0x10(r3)
    6fbc:	48 00 20 00 	l.jalr r4
    6fc0:	a8 62 00 00 	l.ori r3,r2,0x0
    6fc4:	9c 21 00 10 	l.addi r1,r1,0x10
    6fc8:	a8 62 00 00 	l.ori r3,r2,0x0
    6fcc:	85 21 ff fc 	l.lwz r9,0xfffffffc(r1)
    6fd0:	84 41 ff f0 	l.lwz r2,0xfffffff0(r1)
    6fd4:	85 c1 ff f4 	l.lwz r14,0xfffffff4(r1)
    6fd8:	00 00 23 ff 	l.j ffd4 <jpeg_abort>
    6fdc:	86 01 ff f8 	l.lwz r16,0xfffffff8(r1)

00006fe0 <jpeg_write_marker>:
    6fe0:	d7 e1 17 ec 	l.sw 0xffffffec(r1),r2
    6fe4:	d7 e1 77 f0 	l.sw 0xfffffff0(r1),r14
    6fe8:	d7 e1 87 f4 	l.sw 0xfffffff4(r1),r16
    6fec:	d7 e1 97 f8 	l.sw 0xfffffff8(r1),r18
    6ff0:	d7 e1 4f fc 	l.sw 0xfffffffc(r1),r9
    6ff4:	a8 43 00 00 	l.ori r2,r3,0x0
    6ff8:	84 63 00 d8 	l.lwz r3,0xd8(r3)
    6ffc:	9c 21 ff ec 	l.addi r1,r1,0xffffffec
    7000:	aa 44 00 00 	l.ori r18,r4,0x0
    7004:	aa 05 00 00 	l.ori r16,r5,0x0
    7008:	bc 23 00 00 	l.sfnei r3,0x0
    700c:	10 00 00 07 	l.bf 7028 <jpeg_write_marker+0x48>
    7010:	a9 c6 00 00 	l.ori r14,r6,0x0
    7014:	84 62 00 10 	l.lwz r3,0x10(r2)
    7018:	9c 63 ff 9b 	l.addi r3,r3,0xffffff9b
    701c:	bc a3 00 02 	l.sfleui r3,0x2
    7020:	10 00 00 0b 	l.bf 704c <jpeg_write_marker+0x6c>
    7024:	15 00 00 00 	l.nop 0x0
    7028:	84 62 00 00 	l.lwz r3,0x0(r2)
    702c:	9c 80 00 12 	l.addi r4,r0,0x12
    7030:	d4 03 20 14 	l.sw 0x14(r3),r4
    7034:	84 82 00 10 	l.lwz r4,0x10(r2)
    7038:	d4 03 20 18 	l.sw 0x18(r3),r4
    703c:	84 62 00 00 	l.lwz r3,0x0(r2)
    7040:	84 83 00 00 	l.lwz r4,0x0(r3)
    7044:	48 00 20 00 	l.jalr r4
    7048:	a8 62 00 00 	l.ori r3,r2,0x0
    704c:	84 62 01 54 	l.lwz r3,0x154(r2)
    7050:	a8 92 00 00 	l.ori r4,r18,0x0
    7054:	84 e3 00 00 	l.lwz r7,0x0(r3)
    7058:	9c 21 00 14 	l.addi r1,r1,0x14
    705c:	a8 62 00 00 	l.ori r3,r2,0x0
    7060:	a8 b0 00 00 	l.ori r5,r16,0x0
    7064:	a8 ce 00 00 	l.ori r6,r14,0x0
    7068:	85 21 ff fc 	l.lwz r9,0xfffffffc(r1)
    706c:	84 41 ff ec 	l.lwz r2,0xffffffec(r1)
    7070:	85 c1 ff f0 	l.lwz r14,0xfffffff0(r1)
    7074:	86 01 ff f4 	l.lwz r16,0xfffffff4(r1)
    7078:	44 00 38 00 	l.jr r7
    707c:	86 41 ff f8 	l.lwz r18,0xfffffff8(r1)

00007080 <jpeg_write_tables>:
    7080:	d7 e1 17 f8 	l.sw 0xfffffff8(r1),r2
    7084:	d7 e1 4f fc 	l.sw 0xfffffffc(r1),r9
    7088:	84 83 00 10 	l.lwz r4,0x10(r3)
    708c:	9c 21 ff f8 	l.addi r1,r1,0xfffffff8
    7090:	bc 04 00 64 	l.sfeqi r4,0x64
    7094:	10 00 00 0a 	l.bf 70bc <jpeg_write_tables+0x3c>
    7098:	a8 43 00 00 	l.ori r2,r3,0x0
    709c:	84 a3 00 00 	l.lwz r5,0x0(r3)
    70a0:	9c c0 00 12 	l.addi r6,r0,0x12
    70a4:	d4 05 20 18 	l.sw 0x18(r5),r4
    70a8:	d4 05 30 14 	l.sw 0x14(r5),r6
    70ac:	84 83 00 00 	l.lwz r4,0x0(r3)
    70b0:	84 84 00 00 	l.lwz r4,0x0(r4)
    70b4:	48 00 20 00 	l.jalr r4
    70b8:	15 00 00 00 	l.nop 0x0
    70bc:	84 62 00 00 	l.lwz r3,0x0(r2)
    70c0:	84 83 00 10 	l.lwz r4,0x10(r3)
    70c4:	48 00 20 00 	l.jalr r4
    70c8:	a8 62 00 00 	l.ori r3,r2,0x0
    70cc:	84 62 00 14 	l.lwz r3,0x14(r2)
    70d0:	84 83 00 08 	l.lwz r4,0x8(r3)
    70d4:	48 00 20 00 	l.jalr r4
    70d8:	a8 62 00 00 	l.ori r3,r2,0x0
    70dc:	04 00 0b 75 	l.jal 9eb0 <jinit_marker_writer>
    70e0:	a8 62 00 00 	l.ori r3,r2,0x0
    70e4:	84 62 01 54 	l.lwz r3,0x154(r2)
    70e8:	84 83 00 14 	l.lwz r4,0x14(r3)
    70ec:	48 00 20 00 	l.jalr r4
    70f0:	a8 62 00 00 	l.ori r3,r2,0x0
    70f4:	84 62 00 14 	l.lwz r3,0x14(r2)
    70f8:	84 83 00 10 	l.lwz r4,0x10(r3)
    70fc:	48 00 20 00 	l.jalr r4
    7100:	a8 62 00 00 	l.ori r3,r2,0x0
    7104:	9c 21 00 08 	l.addi r1,r1,0x8
    7108:	a8 62 00 00 	l.ori r3,r2,0x0
    710c:	85 21 ff fc 	l.lwz r9,0xfffffffc(r1)
    7110:	00 00 23 b1 	l.j ffd4 <jpeg_abort>
    7114:	84 41 ff f8 	l.lwz r2,0xfffffff8(r1)

00007118 <jpeg_start_compress>:
    7118:	d7 e1 17 f4 	l.sw 0xfffffff4(r1),r2
    711c:	d7 e1 77 f8 	l.sw 0xfffffff8(r1),r14
    7120:	d7 e1 4f fc 	l.sw 0xfffffffc(r1),r9
    7124:	84 a3 00 10 	l.lwz r5,0x10(r3)
    7128:	9c 21 ff f4 	l.addi r1,r1,0xfffffff4
    712c:	a8 43 00 00 	l.ori r2,r3,0x0
    7130:	bc 05 00 64 	l.sfeqi r5,0x64
    7134:	10 00 00 0a 	l.bf 715c <jpeg_start_compress+0x44>
    7138:	a9 c4 00 00 	l.ori r14,r4,0x0
    713c:	84 83 00 00 	l.lwz r4,0x0(r3)
    7140:	9c c0 00 12 	l.addi r6,r0,0x12
    7144:	d4 04 28 18 	l.sw 0x18(r4),r5
    7148:	d4 04 30 14 	l.sw 0x14(r4),r6
    714c:	84 83 00 00 	l.lwz r4,0x0(r3)
    7150:	84 84 00 00 	l.lwz r4,0x0(r4)
    7154:	48 00 20 00 	l.jalr r4
    7158:	15 00 00 00 	l.nop 0x0
    715c:	bc 0e 00 00 	l.sfeqi r14,0x0
    7160:	10 00 00 05 	l.bf 7174 <jpeg_start_compress+0x5c>
    7164:	15 00 00 00 	l.nop 0x0
    7168:	a8 62 00 00 	l.ori r3,r2,0x0
    716c:	07 ff ff 22 	l.jal 6df4 <jpeg_suppress_tables>
    7170:	9c 80 00 00 	l.addi r4,r0,0x0
    7174:	84 62 00 00 	l.lwz r3,0x0(r2)
    7178:	84 83 00 10 	l.lwz r4,0x10(r3)
    717c:	48 00 20 00 	l.jalr r4
    7180:	a8 62 00 00 	l.ori r3,r2,0x0
    7184:	84 62 00 14 	l.lwz r3,0x14(r2)
    7188:	84 83 00 08 	l.lwz r4,0x8(r3)
    718c:	48 00 20 00 	l.jalr r4
    7190:	a8 62 00 00 	l.ori r3,r2,0x0
    7194:	04 00 04 3e 	l.jal 828c <jinit_compress_master>
    7198:	a8 62 00 00 	l.ori r3,r2,0x0
    719c:	84 62 01 44 	l.lwz r3,0x144(r2)
    71a0:	84 83 00 00 	l.lwz r4,0x0(r3)
    71a4:	48 00 20 00 	l.jalr r4
    71a8:	a8 62 00 00 	l.ori r3,r2,0x0
    71ac:	9c 60 00 00 	l.addi r3,r0,0x0
    71b0:	84 82 00 a8 	l.lwz r4,0xa8(r2)
    71b4:	d4 02 18 d8 	l.sw 0xd8(r2),r3
    71b8:	bc 04 00 00 	l.sfeqi r4,0x0
    71bc:	10 00 00 03 	l.bf 71c8 <jpeg_start_compress+0xb0>
    71c0:	9c 60 00 65 	l.addi r3,r0,0x65
    71c4:	9c 60 00 66 	l.addi r3,r0,0x66
    71c8:	d4 02 18 10 	l.sw 0x10(r2),r3
    71cc:	9c 21 00 0c 	l.addi r1,r1,0xc
    71d0:	85 21 ff fc 	l.lwz r9,0xfffffffc(r1)
    71d4:	84 41 ff f4 	l.lwz r2,0xfffffff4(r1)
    71d8:	44 00 48 00 	l.jr r9
    71dc:	85 c1 ff f8 	l.lwz r14,0xfffffff8(r1)

000071e0 <jpeg_write_scanlines>:
    71e0:	d7 e1 17 f0 	l.sw 0xfffffff0(r1),r2
    71e4:	d7 e1 77 f4 	l.sw 0xfffffff4(r1),r14
    71e8:	d7 e1 87 f8 	l.sw 0xfffffff8(r1),r16
    71ec:	d7 e1 4f fc 	l.sw 0xfffffffc(r1),r9
    71f0:	84 e3 00 10 	l.lwz r7,0x10(r3)
    71f4:	9c 21 ff ec 	l.addi r1,r1,0xffffffec
    71f8:	a8 43 00 00 	l.ori r2,r3,0x0
    71fc:	a9 c4 00 00 	l.ori r14,r4,0x0
    7200:	bc 07 00 65 	l.sfeqi r7,0x65
    7204:	10 00 00 0a 	l.bf 722c <jpeg_write_scanlines+0x4c>
    7208:	aa 05 00 00 	l.ori r16,r5,0x0
    720c:	84 83 00 00 	l.lwz r4,0x0(r3)
    7210:	9c a0 00 12 	l.addi r5,r0,0x12
    7214:	d4 04 38 18 	l.sw 0x18(r4),r7
    7218:	d4 04 28 14 	l.sw 0x14(r4),r5
    721c:	84 83 00 00 	l.lwz r4,0x0(r3)
    7220:	84 84 00 00 	l.lwz r4,0x0(r4)
    7224:	48 00 20 00 	l.jalr r4
    7228:	15 00 00 00 	l.nop 0x0
    722c:	84 82 00 d8 	l.lwz r4,0xd8(r2)
    7230:	84 62 00 1c 	l.lwz r3,0x1c(r2)
    7234:	e4 84 18 00 	l.sfltu r4,r3
    7238:	10 00 00 08 	l.bf 7258 <jpeg_write_scanlines+0x78>
    723c:	9c 80 00 77 	l.addi r4,r0,0x77
    7240:	84 62 00 00 	l.lwz r3,0x0(r2)
    7244:	84 a3 00 04 	l.lwz r5,0x4(r3)
    7248:	d4 03 20 14 	l.sw 0x14(r3),r4
    724c:	a8 62 00 00 	l.ori r3,r2,0x0
    7250:	48 00 28 00 	l.jalr r5
    7254:	9c 80 ff ff 	l.addi r4,r0,0xffffffff
    7258:	84 62 00 08 	l.lwz r3,0x8(r2)
    725c:	bc 03 00 00 	l.sfeqi r3,0x0
    7260:	10 00 00 09 	l.bf 7284 <jpeg_write_scanlines+0xa4>
    7264:	15 00 00 00 	l.nop 0x0
    7268:	84 82 00 d8 	l.lwz r4,0xd8(r2)
    726c:	d4 03 20 04 	l.sw 0x4(r3),r4
    7270:	84 82 00 1c 	l.lwz r4,0x1c(r2)
    7274:	d4 03 20 08 	l.sw 0x8(r3),r4
    7278:	84 83 00 00 	l.lwz r4,0x0(r3)
    727c:	48 00 20 00 	l.jalr r4
    7280:	a8 62 00 00 	l.ori r3,r2,0x0
    7284:	84 62 01 44 	l.lwz r3,0x144(r2)
    7288:	84 83 00 0c 	l.lwz r4,0xc(r3)
    728c:	bc 04 00 00 	l.sfeqi r4,0x0
    7290:	10 00 00 05 	l.bf 72a4 <jpeg_write_scanlines+0xc4>
    7294:	15 00 00 00 	l.nop 0x0
    7298:	84 83 00 04 	l.lwz r4,0x4(r3)
    729c:	48 00 20 00 	l.jalr r4
    72a0:	a8 62 00 00 	l.ori r3,r2,0x0
    72a4:	84 82 00 1c 	l.lwz r4,0x1c(r2)
    72a8:	84 62 00 d8 	l.lwz r3,0xd8(r2)
    72ac:	e0 64 18 02 	l.sub r3,r4,r3
    72b0:	e4 b0 18 00 	l.sfleu r16,r3
    72b4:	10 00 00 03 	l.bf 72c0 <jpeg_write_scanlines+0xe0>
    72b8:	a8 d0 00 00 	l.ori r6,r16,0x0
    72bc:	a8 c3 00 00 	l.ori r6,r3,0x0
    72c0:	9c 60 00 00 	l.addi r3,r0,0x0
    72c4:	a8 8e 00 00 	l.ori r4,r14,0x0
    72c8:	d4 01 18 00 	l.sw 0x0(r1),r3
    72cc:	84 62 01 48 	l.lwz r3,0x148(r2)
    72d0:	a8 a1 00 00 	l.ori r5,r1,0x0
    72d4:	84 e3 00 04 	l.lwz r7,0x4(r3)
    72d8:	48 00 38 00 	l.jalr r7
    72dc:	a8 62 00 00 	l.ori r3,r2,0x0
    72e0:	84 62 00 d8 	l.lwz r3,0xd8(r2)
    72e4:	85 61 00 00 	l.lwz r11,0x0(r1)
    72e8:	e0 63 58 00 	l.add r3,r3,r11
    72ec:	d4 02 18 d8 	l.sw 0xd8(r2),r3
    72f0:	9c 21 00 14 	l.addi r1,r1,0x14
    72f4:	85 21 ff fc 	l.lwz r9,0xfffffffc(r1)
    72f8:	84 41 ff f0 	l.lwz r2,0xfffffff0(r1)
    72fc:	85 c1 ff f4 	l.lwz r14,0xfffffff4(r1)
    7300:	44 00 48 00 	l.jr r9
    7304:	86 01 ff f8 	l.lwz r16,0xfffffff8(r1)

00007308 <jpeg_write_raw_data>:
    7308:	d7 e1 17 ec 	l.sw 0xffffffec(r1),r2
    730c:	d7 e1 87 f4 	l.sw 0xfffffff4(r1),r16
    7310:	d7 e1 97 f8 	l.sw 0xfffffff8(r1),r18
    7314:	d7 e1 4f fc 	l.sw 0xfffffffc(r1),r9
    7318:	d7 e1 77 f0 	l.sw 0xfffffff0(r1),r14
    731c:	84 c3 00 10 	l.lwz r6,0x10(r3)
    7320:	9c 21 ff ec 	l.addi r1,r1,0xffffffec
    7324:	a8 43 00 00 	l.ori r2,r3,0x0
    7328:	aa 04 00 00 	l.ori r16,r4,0x0
    732c:	bc 06 00 66 	l.sfeqi r6,0x66
    7330:	10 00 00 0a 	l.bf 7358 <jpeg_write_raw_data+0x50>
    7334:	aa 45 00 00 	l.ori r18,r5,0x0
    7338:	84 83 00 00 	l.lwz r4,0x0(r3)
    733c:	9c a0 00 12 	l.addi r5,r0,0x12
    7340:	d4 04 30 18 	l.sw 0x18(r4),r6
    7344:	d4 04 28 14 	l.sw 0x14(r4),r5
    7348:	84 83 00 00 	l.lwz r4,0x0(r3)
    734c:	84 84 00 00 	l.lwz r4,0x0(r4)
    7350:	48 00 20 00 	l.jalr r4
    7354:	15 00 00 00 	l.nop 0x0
    7358:	84 e2 00 d8 	l.lwz r7,0xd8(r2)
    735c:	84 c2 00 1c 	l.lwz r6,0x1c(r2)
    7360:	e4 87 30 00 	l.sfltu r7,r6
    7364:	10 00 00 0b 	l.bf 7390 <jpeg_write_raw_data+0x88>
    7368:	9c 80 00 77 	l.addi r4,r0,0x77
    736c:	84 62 00 00 	l.lwz r3,0x0(r2)
    7370:	84 a3 00 04 	l.lwz r5,0x4(r3)
    7374:	d4 03 20 14 	l.sw 0x14(r3),r4
    7378:	a8 62 00 00 	l.ori r3,r2,0x0
    737c:	9c 80 ff ff 	l.addi r4,r0,0xffffffff
    7380:	48 00 28 00 	l.jalr r5
    7384:	9d c0 00 00 	l.addi r14,r0,0x0
    7388:	00 00 00 2b 	l.j 7434 <jpeg_write_raw_data+0x12c>
    738c:	9c 21 00 14 	l.addi r1,r1,0x14
    7390:	84 62 00 08 	l.lwz r3,0x8(r2)
    7394:	bc 03 00 00 	l.sfeqi r3,0x0
    7398:	10 00 00 07 	l.bf 73b4 <jpeg_write_raw_data+0xac>
    739c:	15 00 00 00 	l.nop 0x0
    73a0:	d4 03 38 04 	l.sw 0x4(r3),r7
    73a4:	d4 03 30 08 	l.sw 0x8(r3),r6
    73a8:	84 83 00 00 	l.lwz r4,0x0(r3)
    73ac:	48 00 20 00 	l.jalr r4
    73b0:	a8 62 00 00 	l.ori r3,r2,0x0
    73b4:	84 62 01 44 	l.lwz r3,0x144(r2)
    73b8:	84 83 00 0c 	l.lwz r4,0xc(r3)
    73bc:	bc 04 00 00 	l.sfeqi r4,0x0
    73c0:	10 00 00 05 	l.bf 73d4 <jpeg_write_raw_data+0xcc>
    73c4:	15 00 00 00 	l.nop 0x0
    73c8:	84 83 00 04 	l.lwz r4,0x4(r3)
    73cc:	48 00 20 00 	l.jalr r4
    73d0:	a8 62 00 00 	l.ori r3,r2,0x0
    73d4:	85 c2 00 e4 	l.lwz r14,0xe4(r2)
    73d8:	b9 ce 00 03 	l.slli r14,r14,0x3
    73dc:	e4 72 70 00 	l.sfgeu r18,r14
    73e0:	10 00 00 07 	l.bf 73fc <jpeg_write_raw_data+0xf4>
    73e4:	9c 80 00 15 	l.addi r4,r0,0x15
    73e8:	84 62 00 00 	l.lwz r3,0x0(r2)
    73ec:	d4 03 20 14 	l.sw 0x14(r3),r4
    73f0:	84 83 00 00 	l.lwz r4,0x0(r3)
    73f4:	48 00 20 00 	l.jalr r4
    73f8:	a8 62 00 00 	l.ori r3,r2,0x0
    73fc:	84 62 01 50 	l.lwz r3,0x150(r2)
    7400:	a8 90 00 00 	l.ori r4,r16,0x0
    7404:	85 63 00 04 	l.lwz r11,0x4(r3)
    7408:	48 00 58 00 	l.jalr r11
    740c:	a8 62 00 00 	l.ori r3,r2,0x0
    7410:	bc 0b 00 00 	l.sfeqi r11,0x0
    7414:	10 00 00 06 	l.bf 742c <jpeg_write_raw_data+0x124>
    7418:	15 00 00 00 	l.nop 0x0
    741c:	84 62 00 d8 	l.lwz r3,0xd8(r2)
    7420:	e0 63 70 00 	l.add r3,r3,r14
    7424:	00 00 00 03 	l.j 7430 <jpeg_write_raw_data+0x128>
    7428:	d4 02 18 d8 	l.sw 0xd8(r2),r3
    742c:	a9 cb 00 00 	l.ori r14,r11,0x0
    7430:	9c 21 00 14 	l.addi r1,r1,0x14
    7434:	a9 6e 00 00 	l.ori r11,r14,0x0
    7438:	85 21 ff fc 	l.lwz r9,0xfffffffc(r1)
    743c:	84 41 ff ec 	l.lwz r2,0xffffffec(r1)
    7440:	85 c1 ff f0 	l.lwz r14,0xfffffff0(r1)
    7444:	86 01 ff f4 	l.lwz r16,0xfffffff4(r1)
    7448:	44 00 48 00 	l.jr r9
    744c:	86 41 ff f8 	l.lwz r18,0xfffffff8(r1)

00007450 <fill_dc_scans>:
    7450:	d7 e1 17 fc 	l.sw 0xfffffffc(r1),r2
    7454:	bd 44 00 04 	l.sfgtsi r4,0x4
    7458:	10 00 00 12 	l.bf 74a0 <fill_dc_scans+0x50>
    745c:	9c 21 ff fc 	l.addi r1,r1,0xfffffffc
    7460:	d4 03 20 00 	l.sw 0x0(r3),r4
    7464:	a9 03 00 00 	l.ori r8,r3,0x0
    7468:	00 00 00 04 	l.j 7478 <fill_dc_scans+0x28>
    746c:	9c e0 00 00 	l.addi r7,r0,0x0
    7470:	d4 08 38 00 	l.sw 0x0(r8),r7
    7474:	9c e7 00 01 	l.addi r7,r7,0x1
    7478:	e5 87 20 00 	l.sflts r7,r4
    747c:	13 ff ff fd 	l.bf 7470 <fill_dc_scans+0x20>
    7480:	9d 08 00 04 	l.addi r8,r8,0x4
    7484:	9c 40 00 00 	l.addi r2,r0,0x0
    7488:	d4 03 28 1c 	l.sw 0x1c(r3),r5
    748c:	d4 03 10 18 	l.sw 0x18(r3),r2
    7490:	d4 03 10 14 	l.sw 0x14(r3),r2
    7494:	d4 03 30 20 	l.sw 0x20(r3),r6
    7498:	00 00 00 14 	l.j 74e8 <fill_dc_scans+0x98>
    749c:	9d 63 00 24 	l.addi r11,r3,0x24
    74a0:	a8 e3 00 00 	l.ori r7,r3,0x0
    74a4:	9d 00 00 00 	l.addi r8,r0,0x0
    74a8:	9d 60 00 01 	l.addi r11,r0,0x1
    74ac:	9c 40 00 00 	l.addi r2,r0,0x0
    74b0:	d4 07 40 04 	l.sw 0x4(r7),r8
    74b4:	d4 07 58 00 	l.sw 0x0(r7),r11
    74b8:	d4 07 10 14 	l.sw 0x14(r7),r2
    74bc:	d4 07 10 18 	l.sw 0x18(r7),r2
    74c0:	d4 07 28 1c 	l.sw 0x1c(r7),r5
    74c4:	d4 07 30 20 	l.sw 0x20(r7),r6
    74c8:	9d 08 00 01 	l.addi r8,r8,0x1
    74cc:	e4 28 20 00 	l.sfne r8,r4
    74d0:	13 ff ff f8 	l.bf 74b0 <fill_dc_scans+0x60>
    74d4:	9c e7 00 24 	l.addi r7,r7,0x24
    74d8:	b9 68 00 02 	l.slli r11,r8,0x2
    74dc:	b9 08 00 05 	l.slli r8,r8,0x5
    74e0:	e1 6b 40 00 	l.add r11,r11,r8
    74e4:	e1 63 58 00 	l.add r11,r3,r11
    74e8:	9c 21 00 04 	l.addi r1,r1,0x4
    74ec:	44 00 48 00 	l.jr r9
    74f0:	84 41 ff fc 	l.lwz r2,0xfffffffc(r1)

000074f4 <add_huff_table>:
    74f4:	d7 e1 17 f0 	l.sw 0xfffffff0(r1),r2
    74f8:	d7 e1 77 f4 	l.sw 0xfffffff4(r1),r14
    74fc:	d7 e1 87 f8 	l.sw 0xfffffff8(r1),r16
    7500:	d7 e1 4f fc 	l.sw 0xfffffffc(r1),r9
    7504:	a8 44 00 00 	l.ori r2,r4,0x0
    7508:	84 84 00 00 	l.lwz r4,0x0(r4)
    750c:	9c 21 ff f0 	l.addi r1,r1,0xfffffff0
    7510:	aa 05 00 00 	l.ori r16,r5,0x0
    7514:	bc 24 00 00 	l.sfnei r4,0x0
    7518:	10 00 00 05 	l.bf 752c <add_huff_table+0x38>
    751c:	a9 c6 00 00 	l.ori r14,r6,0x0
    7520:	04 00 22 de 	l.jal 10098 <jpeg_alloc_huff_table>
    7524:	15 00 00 00 	l.nop 0x0
    7528:	d4 02 58 00 	l.sw 0x0(r2),r11
    752c:	84 62 00 00 	l.lwz r3,0x0(r2)
    7530:	a8 90 00 00 	l.ori r4,r16,0x0
    7534:	04 00 40 e1 	l.jal 178b8 <memcpy>
    7538:	9c a0 00 11 	l.addi r5,r0,0x11
    753c:	84 62 00 00 	l.lwz r3,0x0(r2)
    7540:	a8 8e 00 00 	l.ori r4,r14,0x0
    7544:	9c 63 00 11 	l.addi r3,r3,0x11
    7548:	04 00 40 dc 	l.jal 178b8 <memcpy>
    754c:	9c a0 01 00 	l.addi r5,r0,0x100
    7550:	9c 60 00 00 	l.addi r3,r0,0x0
    7554:	84 42 00 00 	l.lwz r2,0x0(r2)
    7558:	d4 02 19 14 	l.sw 0x114(r2),r3
    755c:	9c 21 00 10 	l.addi r1,r1,0x10
    7560:	85 21 ff fc 	l.lwz r9,0xfffffffc(r1)
    7564:	84 41 ff f0 	l.lwz r2,0xfffffff0(r1)
    7568:	85 c1 ff f4 	l.lwz r14,0xfffffff4(r1)
    756c:	44 00 48 00 	l.jr r9
    7570:	86 01 ff f8 	l.lwz r16,0xfffffff8(r1)

00007574 <jpeg_add_quant_table>:
    7574:	d7 e1 17 e4 	l.sw 0xffffffe4(r1),r2
    7578:	d7 e1 77 e8 	l.sw 0xffffffe8(r1),r14
    757c:	d7 e1 97 f0 	l.sw 0xfffffff0(r1),r18
    7580:	d7 e1 a7 f4 	l.sw 0xfffffff4(r1),r20
    7584:	d7 e1 b7 f8 	l.sw 0xfffffff8(r1),r22
    7588:	d7 e1 4f fc 	l.sw 0xfffffffc(r1),r9
    758c:	d7 e1 87 ec 	l.sw 0xffffffec(r1),r16
    7590:	aa 84 00 00 	l.ori r20,r4,0x0
    7594:	84 83 00 10 	l.lwz r4,0x10(r3)
    7598:	9c 21 ff e4 	l.addi r1,r1,0xffffffe4
    759c:	a8 43 00 00 	l.ori r2,r3,0x0
    75a0:	a9 c5 00 00 	l.ori r14,r5,0x0
    75a4:	aa c6 00 00 	l.ori r22,r6,0x0
    75a8:	bc 04 00 64 	l.sfeqi r4,0x64
    75ac:	10 00 00 0a 	l.bf 75d4 <jpeg_add_quant_table+0x60>
    75b0:	aa 47 00 00 	l.ori r18,r7,0x0
    75b4:	84 a3 00 00 	l.lwz r5,0x0(r3)
    75b8:	9c c0 00 12 	l.addi r6,r0,0x12
    75bc:	d4 05 20 18 	l.sw 0x18(r5),r4
    75c0:	d4 05 30 14 	l.sw 0x14(r5),r6
    75c4:	84 83 00 00 	l.lwz r4,0x0(r3)
    75c8:	84 84 00 00 	l.lwz r4,0x0(r4)
    75cc:	48 00 20 00 	l.jalr r4
    75d0:	15 00 00 00 	l.nop 0x0
    75d4:	9e 14 00 10 	l.addi r16,r20,0x10
    75d8:	ba 10 00 02 	l.slli r16,r16,0x2
    75dc:	e2 02 80 00 	l.add r16,r2,r16
    75e0:	84 70 00 00 	l.lwz r3,0x0(r16)
    75e4:	bc 23 00 00 	l.sfnei r3,0x0
    75e8:	10 00 00 07 	l.bf 7604 <jpeg_add_quant_table+0x90>
    75ec:	9e 94 00 10 	l.addi r20,r20,0x10
    75f0:	9e 94 ff f0 	l.addi r20,r20,0xfffffff0
    75f4:	04 00 22 9b 	l.jal 10060 <jpeg_alloc_quant_table>
    75f8:	a8 62 00 00 	l.ori r3,r2,0x0
    75fc:	d4 10 58 00 	l.sw 0x0(r16),r11
    7600:	9e 94 00 10 	l.addi r20,r20,0x10
    7604:	e0 60 90 02 	l.sub r3,r0,r18
    7608:	ba 94 00 02 	l.slli r20,r20,0x2
    760c:	e2 43 90 04 	l.or r18,r3,r18
    7610:	e0 42 a0 00 	l.add r2,r2,r20
    7614:	ba 52 00 5f 	l.srli r18,r18,0x1f
    7618:	86 02 00 00 	l.lwz r16,0x0(r2)
    761c:	9c 40 00 00 	l.addi r2,r0,0x0
    7620:	84 6e 00 00 	l.lwz r3,0x0(r14)
    7624:	9c 80 00 64 	l.addi r4,r0,0x64
    7628:	e0 76 1b 06 	l.mul r3,r22,r3
    762c:	04 00 29 25 	l.jal 11ac0 <__divsi3>
    7630:	9c 63 00 32 	l.addi r3,r3,0x32
    7634:	bd ab 00 00 	l.sflesi r11,0x0
    7638:	10 00 00 06 	l.bf 7650 <jpeg_add_quant_table+0xdc>
    763c:	bd 4b 7f ff 	l.sfgtsi r11,0x7fff
    7640:	10 00 00 06 	l.bf 7658 <jpeg_add_quant_table+0xe4>
    7644:	9c 60 00 01 	l.addi r3,r0,0x1
    7648:	00 00 00 07 	l.j 7664 <jpeg_add_quant_table+0xf0>
    764c:	bd 4b 00 ff 	l.sfgtsi r11,0xff
    7650:	00 00 00 03 	l.j 765c <jpeg_add_quant_table+0xe8>
    7654:	9d 60 00 01 	l.addi r11,r0,0x1
    7658:	9d 60 7f ff 	l.addi r11,r0,0x7fff
    765c:	9c 60 00 01 	l.addi r3,r0,0x1
    7660:	bd 4b 00 ff 	l.sfgtsi r11,0xff
    7664:	10 00 00 04 	l.bf 7674 <jpeg_add_quant_table+0x100>
    7668:	a4 63 00 ff 	l.andi r3,r3,0xff
    766c:	9c 60 00 00 	l.addi r3,r0,0x0
    7670:	a4 63 00 ff 	l.andi r3,r3,0xff
    7674:	bc 03 00 00 	l.sfeqi r3,0x0
    7678:	10 00 00 06 	l.bf 7690 <jpeg_add_quant_table+0x11c>
    767c:	e0 70 10 00 	l.add r3,r16,r2
    7680:	bc 12 00 00 	l.sfeqi r18,0x0
    7684:	10 00 00 03 	l.bf 7690 <jpeg_add_quant_table+0x11c>
    7688:	15 00 00 00 	l.nop 0x0
    768c:	9d 60 00 ff 	l.addi r11,r0,0xff
    7690:	9c 42 00 02 	l.addi r2,r2,0x2
    7694:	dc 03 58 00 	l.sh 0x0(r3),r11
    7698:	bc 22 00 80 	l.sfnei r2,0x80
    769c:	13 ff ff e1 	l.bf 7620 <jpeg_add_quant_table+0xac>
    76a0:	9d ce 00 04 	l.addi r14,r14,0x4
    76a4:	9c 40 00 00 	l.addi r2,r0,0x0
    76a8:	d4 10 10 80 	l.sw 0x80(r16),r2
    76ac:	9c 21 00 1c 	l.addi r1,r1,0x1c
    76b0:	85 21 ff fc 	l.lwz r9,0xfffffffc(r1)
    76b4:	84 41 ff e4 	l.lwz r2,0xffffffe4(r1)
    76b8:	85 c1 ff e8 	l.lwz r14,0xffffffe8(r1)
    76bc:	86 01 ff ec 	l.lwz r16,0xffffffec(r1)
    76c0:	86 41 ff f0 	l.lwz r18,0xfffffff0(r1)
    76c4:	86 81 ff f4 	l.lwz r20,0xfffffff4(r1)
    76c8:	44 00 48 00 	l.jr r9
    76cc:	86 c1 ff f8 	l.lwz r22,0xfffffff8(r1)

000076d0 <jpeg_set_linear_quality>:
    76d0:	d7 e1 17 f0 	l.sw 0xfffffff0(r1),r2
    76d4:	d7 e1 77 f4 	l.sw 0xfffffff4(r1),r14
    76d8:	a8 45 00 00 	l.ori r2,r5,0x0
    76dc:	a9 c4 00 00 	l.ori r14,r4,0x0
    76e0:	18 a0 00 02 	l.movhi r5,0x2
    76e4:	d7 e1 4f fc 	l.sw 0xfffffffc(r1),r9
    76e8:	d7 e1 87 f8 	l.sw 0xfffffff8(r1),r16
    76ec:	a8 ce 00 00 	l.ori r6,r14,0x0
    76f0:	a8 e2 00 00 	l.ori r7,r2,0x0
    76f4:	9c 21 ff f0 	l.addi r1,r1,0xfffffff0
    76f8:	9c 80 00 00 	l.addi r4,r0,0x0
    76fc:	a8 a5 ac e8 	l.ori r5,r5,0xace8
    7700:	07 ff ff 9d 	l.jal 7574 <jpeg_add_quant_table>
    7704:	aa 03 00 00 	l.ori r16,r3,0x0
    7708:	18 a0 00 02 	l.movhi r5,0x2
    770c:	9c 21 00 10 	l.addi r1,r1,0x10
    7710:	a8 70 00 00 	l.ori r3,r16,0x0
    7714:	a8 ce 00 00 	l.ori r6,r14,0x0
    7718:	a8 e2 00 00 	l.ori r7,r2,0x0
    771c:	9c 80 00 01 	l.addi r4,r0,0x1
    7720:	a8 a5 ab e8 	l.ori r5,r5,0xabe8
    7724:	85 21 ff fc 	l.lwz r9,0xfffffffc(r1)
    7728:	84 41 ff f0 	l.lwz r2,0xfffffff0(r1)
    772c:	85 c1 ff f4 	l.lwz r14,0xfffffff4(r1)
    7730:	03 ff ff 91 	l.j 7574 <jpeg_add_quant_table>
    7734:	86 01 ff f8 	l.lwz r16,0xfffffff8(r1)

00007738 <jpeg_quality_scaling>:
    7738:	d7 e1 4f fc 	l.sw 0xfffffffc(r1),r9
    773c:	a8 83 00 00 	l.ori r4,r3,0x0
    7740:	bd a3 00 00 	l.sflesi r3,0x0
    7744:	10 00 00 0a 	l.bf 776c <jpeg_quality_scaling+0x34>
    7748:	9c 21 ff fc 	l.addi r1,r1,0xfffffffc
    774c:	bd 43 00 64 	l.sfgtsi r3,0x64
    7750:	10 00 00 0c 	l.bf 7780 <jpeg_quality_scaling+0x48>
    7754:	9d 60 00 64 	l.addi r11,r0,0x64
    7758:	bd 43 00 31 	l.sfgtsi r3,0x31
    775c:	0c 00 00 05 	l.bnf 7770 <jpeg_quality_scaling+0x38>
    7760:	15 00 00 00 	l.nop 0x0
    7764:	00 00 00 09 	l.j 7788 <jpeg_quality_scaling+0x50>
